(dp1
S'my_photo-1789.jpg'
p2
(dp3
I35182
S'b05'
p4
ssS'my_photo-1844.jpg'
p5
(dp6
I34692
S'g08'
p7
sI37730
S'i06'
p8
sI34260
S'i07'
p9
sI34348
S'g07'
p10
ssS'my_photo-1601.jpg'
p11
(dp12
I27715
S'd05'
p13
sI36958
S'h13'
p14
ssS'my_photo-1963.jpg'
p15
(dp16
I39488
S'e01'
p17
sI28793
S'a01'
p18
sI35794
S'd09'
p19
ssS'my_photo-1037.jpg'
p20
(dp21
I37408
g19
sI31340
S'd08'
p22
ssS'my_photo-1298.jpg'
p23
(dp24
I37352
g22
sI29143
S'd07'
p25
ssS'my_photo-1215.jpg'
p26
(dp27
I22583
S'd06'
p28
ssS'my_photo-1358.jpg'
p29
(dp30
I36539
S'e06'
p31
ssS'my_photo-1746.jpg'
p32
(dp33
I30812
g13
sI37182
g28
ssS'my_photo-777.jpg'
p34
(dp35
I25916
g28
ssS'my_photo-999.jpg'
p36
(dp37
I38306
S'b04'
p38
sI33995
S'b03'
p39
ssS'my_photo-899.jpg'
p40
(dp41
I40972
S'g03'
p42
sI36340
S'g05'
p43
sI34261
S'i01'
p44
sI29335
S'g04'
p45
ssS'my_photo-1498.jpg'
p46
(dp47
I29517
S'b01'
p48
sI41511
S'b02'
p49
ssS'my_photo-1598.jpg'
p50
(dp51
I36600
g14
sI38342
S'h12'
p52
ssS'my_photo-896.jpg'
p53
(dp54
I26315
S'g02'
p55
sI34973
S'g01'
p56
ssS'my_photo-1579.jpg'
p57
(dp58
I36404
S'j15'
p59
ssS'my_photo-1836.jpg'
p60
(dp61
I40297
g44
sI31546
g43
sI38869
S'i02'
p62
sI34334
S'g06'
p63
ssS'my_photo-2094.jpg'
p64
(dp65
I28769
g18
sI35882
g19
sI39443
g17
ssS'my_photo-960.jpg'
p66
(dp67
I25626
g13
sI37206
g14
ssS'my_photo-1935.jpg'
p68
(dp69
I38979
S'h07'
p70
sI32590
S'h06'
p71
ssS'my_photo-2188.jpg'
p72
(dp73
I37622
g4
sI37311
g38
ssS'my_photo-1700.jpg'
p74
(dp75
I40372
S'c06'
p76
sI40671
S'd02'
p77
ssS'my_photo-1921.jpg'
p78
(dp79
I33356
S'g10'
p80
sI35390
g48
ssS'my_photo-1011.jpg'
p81
(dp82
I36744
S'c02'
p83
sI37218
S'f01'
p84
sI38715
S'c03'
p85
ssS'my_photo-1449.jpg'
p86
(dp87
I32302
S'd04'
p88
ssS'my_photo-1476.jpg'
p89
(dp90
I35748
S'f02'
p91
sI40892
S'f03'
p92
ssS'my_photo-1758.jpg'
p93
(dp94
I38728
g42
sI37846
g55
ssS'my_photo-2087.jpg'
p95
(dp96
I23852
g25
ssS'my_photo-2163.jpg'
p97
(dp98
I33282
g22
sI31515
g19
sI38126
g18
ssS'my_photo-923.jpg'
p99
(dp100
I39187
S'j08'
p101
sI34391
S'j07'
p102
ssS'my_photo-1690.jpg'
p103
(dp104
I39749
S'c01'
p105
ssS'my_photo-1797.jpg'
p106
(dp107
I33387
g83
sI37630
g84
ssS'my_photo-876.jpg'
p108
(dp109
I39673
g70
sI36892
S'h08'
p110
ssS'my_photo-1302.jpg'
p111
(dp112
I32062
g19
sI38886
g18
ssS'my_photo-1110.jpg'
p113
(dp114
I35081
g18
sI34042
S'a02'
p115
sI35777
g17
ssS'my_photo-1894.jpg'
p116
(dp117
I31301
g56
sI28927
g25
ssS'my_photo-1486.jpg'
p118
(dp119
I37876
S'b06'
p120
ssS'my_photo-782.jpg'
p121
(dp122
I39437
g56
sI28462
g55
ssS'my_photo-1808.jpg'
p123
(dp124
I36701
g76
ssS'my_photo-901.jpg'
p125
(dp126
I35488
g62
sI27465
g44
sI30861
g43
sI36070
g45
ssS'my_photo-817.jpg'
p127
(dp128
I35681
S'h11'
p129
sI41115
g52
ssS'my_photo-1677.jpg'
p130
(dp131
I38856
g80
sI41969
g39
sI34683
g48
sI31764
g49
sI30417
S'g11'
p132
ssS'my_photo-839.jpg'
p133
(dp134
I38320
g9
sI32681
g8
sI27043
S'j01'
p135
sI38517
S'i05'
p136
sI41046
S'j02'
p137
ssS'my_photo-1364.jpg'
p138
(dp139
I38296
g77
sI41428
S'd01'
p140
ssS'my_photo-905.jpg'
p141
(dp142
I36520
g8
sI30259
S'i04'
p143
sI29502
g136
sI39663
S'i03'
p144
ssS'my_photo-1286.jpg'
p145
(dp146
I37106
g76
ssS'my_photo-2023.jpg'
p147
(dp148
I34480
g19
sI30261
g18
ssS'my_photo-889.jpg'
p149
(dp150
I29456
g28
sI37895
g13
ssS'my_photo-1417.jpg'
p151
(dp152
I36112
g19
sI32850
g22
ssS'my_photo-1849.jpg'
p153
(dp154
I37705
S'g09'
p155
sI37140
g48
sI37836
g80
ssS'my_photo-1120.jpg'
p156
(dp157
I28032
S'a05'
p158
sI38864
S'f06'
p159
ssS'my_photo-1102.jpg'
p160
(dp161
I37364
g22
sI23046
g25
ssS'my_photo-2039.jpg'
p162
(dp163
I37490
g48
sI27589
g158
ssS'my_photo-1320.jpg'
p164
(dp165
I38122
g31
ssS'my_photo-1314.jpg'
p166
(dp167
I38234
S'e04'
p168
sI34162
S'e03'
p169
ssS'my_photo-857.jpg'
p170
(dp171
I38584
S'j11'
p172
sI30913
S'j10'
p173
ssS'my_photo-1409.jpg'
p174
(dp175
I29977
g28
sI40725
g13
ssS'my_photo-1837.jpg'
p176
(dp177
I40362
g62
sI34573
g43
sI30422
g63
ssS'my_photo-1770.jpg'
p178
(dp179
I37607
g63
ssS'my_photo-821.jpg'
p180
(dp181
I27349
g13
ssS'my_photo-983.jpg'
p182
(dp183
I32555
g115
sI38622
S'a03'
p184
ssS'my_photo-1898.jpg'
p185
(dp186
I32384
g55
ssS'my_photo-1654.jpg'
p187
(dp188
I39913
g55
sI37051
g45
sI32495
g42
ssS'my_photo-1279.jpg'
p189
(dp190
I39681
g56
sI31038
g22
sI30374
g25
ssS'my_photo-1119.jpg'
p191
(dp192
I34282
S'a04'
p193
sI36220
g158
sI34301
g159
ssS'my_photo-1634.jpg'
p194
(dp195
I41924
S'h10'
p196
ssS'my_photo-1721.jpg'
p197
(dp198
I39932
g9
sI33155
g63
sI35492
g44
sI30501
g43
sI33830
g62
ssS'my_photo-1078.jpg'
p199
(dp200
I38728
g17
sI34153
g115
sI38286
g18
ssS'my_photo-1129.jpg'
p201
(dp202
I31561
g38
sI37070
g39
ssS'my_photo-1200.jpg'
p203
(dp204
I37688
S'c04'
p205
sI40474
S'c05'
p206
ssS'my_photo-961.jpg'
p207
(dp208
I24544
g13
ssS'my_photo-1181.jpg'
p209
(dp210
I31192
g193
sI38898
g158
sI34031
g159
ssS'my_photo-792.jpg'
p211
(dp212
I33760
g135
sI32288
g137
sI39171
g9
ssS'my_photo-1904.jpg'
p213
(dp214
I35148
g42
sI36261
g45
ssS'my_photo-1994.jpg'
p215
(dp216
I30347
g71
ssS'my_photo-898.jpg'
p217
(dp218
I36018
g45
sI34203
g42
ssS'my_photo-801.jpg'
p219
(dp220
I38816
g173
sI28686
g172
ssS'my_photo-2136.jpg'
p221
(dp222
I30030
g71
ssS'my_photo-2158.jpg'
p223
(dp224
I25409
g25
sI36684
g28
ssS'my_photo-1235.jpg'
p225
(dp226
I37763
g159
sI35988
g158
sI39861
g193
ssS'my_photo-2225.jpg'
p227
(dp228
I40733
g56
sI27310
g25
sI33869
g22
ssS'my_photo-1606.jpg'
p229
(dp230
I33731
g28
sI28109
g25
ssS'my_photo-2013.jpg'
p231
(dp232
I32088
g25
sI27306
g28
ssS'my_photo-750.jpg'
p233
(dp234
I41696
g102
sI29983
S'j06'
p235
ssS'my_photo-1030.jpg'
p236
(dp237
I41826
g13
sI27711
g28
ssS'my_photo-1814.jpg'
p238
(dp239
I35426
g13
sI38957
g88
ssS'my_photo-2003.jpg'
p240
(dp241
I38778
g196
ssS'my_photo-1244.jpg'
p242
(dp243
I38516
g38
sI35230
g39
ssS'my_photo-877.jpg'
p244
(dp245
I32319
g110
ssS'my_photo-1838.jpg'
p246
(dp247
I31795
g63
ssS'my_photo-770.jpg'
p248
(dp249
I37346
S'h09'
p250
ssS'my_photo-1787.jpg'
p251
(dp252
I36921
g39
sI34625
g38
ssS'my_photo-918.jpg'
p253
(dp254
I30443
S'j05'
p255
sI38740
g235
ssS'my_photo-1348.jpg'
p256
(dp257
I38458
g17
sI36703
S'e02'
p258
ssS'my_photo-2122.jpg'
p259
(dp260
I40950
g38
sI32910
g4
ssS'my_photo-2009.jpg'
p261
(dp262
I40128
g14
sI22902
g13
ssS'my_photo-878.jpg'
p263
(dp264
I37731
g250
ssS'my_photo-915.jpg'
p265
(dp266
I34865
g255
sI32581
S'j04'
p267
ssS'my_photo-1397.jpg'
p268
(dp269
I40825
S'e07'
p270
sI40102
S'e08'
p271
ssS'my_photo-1796.jpg'
p272
(dp273
I40275
g84
sI35763
g83
ssS'my_photo-1508.jpg'
p274
(dp275
I30445
S'f04'
p276
sI39486
S'f05'
p277
ssS'my_photo-1532.jpg'
p278
(dp279
I32488
g39
sI40616
g38
ssS'my_photo-900.jpg'
p280
(dp281
I39602
g62
sI32796
g45
sI29702
g44
sI34319
g43
ssS'my_photo-2080.jpg'
p282
(dp283
I31997
g14
sI28439
g13
ssS'my_photo-1636.jpg'
p284
(dp285
I34027
g129
sI39212
g52
ssS'my_photo-746.jpg'
p286
(dp287
I35129
g267
sI32375
g255
ssS'my_photo-1266.jpg'
p288
(dp289
I35868
g76
ssS'my_photo-1355.jpg'
p290
(dp291
I41001
g92
sI36971
S'e05'
p292
sI36111
g168
ssS'my_photo-1414.jpg'
p293
(dp294
I34392
g22
sI30570
g25
sI41700
g56
ssS'my_photo-1481.jpg'
p295
(dp296
I40563
g84
sI37733
g83
ssS'my_photo-1341.jpg'
p297
(dp298
I35875
g19
sI33932
g22
ssS'my_photo-1440.jpg'
p299
(dp300
I42350
g31
ssS'my_photo-1639.jpg'
p301
(dp302
I28314
g14
sI32269
g13
sI41023
g88
ssS'my_photo-1590.jpg'
p303
(dp304
I34279
g110
ssS'my_photo-1847.jpg'
p305
(dp306
I37688
g7
sI33176
g155
ssS'my_photo-2079.jpg'
p307
(dp308
I26139
g14
sI34773
g13
sI41351
g88
ssS'my_photo-1655.jpg'
p309
(dp310
I41329
g44
sI41855
g55
sI31057
g42
sI35463
g45
ssS'my_photo-1720.jpg'
p311
(dp312
I31177
g44
sI37514
g45
sI36303
g62
sI39926
g9
sI26570
g43
sI38047
g63
ssS'my_photo-1682.jpg'
p313
(dp314
I39968
g9
sI36465
g4
sI36861
g38
ssS'my_photo-1910.jpg'
p315
(dp316
I29611
g63
sI35198
g43
ssS'my_photo-775.jpg'
p317
(dp318
I35050
g14
sI27484
g13
ssS'my_photo-2106.jpg'
p319
(dp320
I33938
g184
sI38381
g193
ssS'my_photo-2201.jpg'
p321
(dp322
I34897
g71
sI36749
S'h05'
p323
ssS'my_photo-1880.jpg'
p324
(dp325
I38885
g76
ssS'my_photo-1843.jpg'
p326
(dp327
I37249
g9
sI37547
g8
sI37924
g7
sI31094
g10
ssS'my_photo-1010.jpg'
p328
(dp329
I33482
g83
sI37450
g84
ssS'my_photo-1863.jpg'
p330
(dp331
I40530
g120
ssS'my_photo-1421.jpg'
p332
(dp333
I39232
g19
sI29065
g18
sI39449
g17
ssS'my_photo-1443.jpg'
p334
(dp335
I40253
S'e09'
p336
ssS'my_photo-963.jpg'
p337
(dp338
I38792
g13
sI28579
g28
ssS'my_photo-1974.jpg'
p339
(dp340
I40828
g193
sI30805
g158
sI36638
g159
ssS'my_photo-1014.jpg'
p341
(dp342
I36665
g205
sI34883
g85
ssS'my_photo-1048.jpg'
p343
(dp344
I41016
g193
sI33118
g184
ssS'my_photo-2224.jpg'
p345
(dp346
I25529
g25
sI36695
g28
ssS'my_photo-1919.jpg'
p347
(dp348
I32178
g155
sI38463
g7
ssS'my_photo-1988.jpg'
p349
(dp350
I35474
S'h02'
p351
ssS'my_photo-2218.jpg'
p352
(dp353
I41787
g88
sI31107
g13
sI29236
g14
ssS'my_photo-1995.jpg'
p354
(dp355
I39515
g70
sI31036
g71
ssS'my_photo-1617.jpg'
p356
(dp357
I40177
g45
sI33796
g44
sI37365
g62
sI38412
g63
sI28701
g43
ssS'my_photo-935.jpg'
p358
(dp359
I41792
S'j14'
p360
ssS'my_photo-1923.jpg'
p361
(dp362
I34057
g132
sI39523
g80
sI36534
g48
sI35871
g49
ssS'my_photo-1009.jpg'
p363
(dp364
I38753
g83
ssS'my_photo-1390.jpg'
p365
(dp366
I36441
g169
sI35734
g168
ssS'my_photo-2076.jpg'
p367
(dp368
I41313
g52
sI32308
g129
ssS'my_photo-1559.jpg'
p369
(dp370
I31473
g22
sI36341
g19
ssS'my_photo-1130.jpg'
p371
(dp372
I35450
g4
sI39044
g38
ssS'my_photo-1112.jpg'
p373
(dp374
I28734
g115
sI39127
g184
ssS'my_photo-1942.jpg'
p375
(dp376
I41166
g196
ssS'my_photo-1484.jpg'
p377
(dp378
I40600
g105
ssS'my_photo-2155.jpg'
p379
(dp380
I23970
g28
ssS'my_photo-1006.jpg'
p381
(dp382
I39847
S'b07'
p383
ssS'my_photo-1563.jpg'
p384
(dp385
I38729
g19
sI29011
g18
ssS'my_photo-1193.jpg'
p386
(dp387
I36910
g105
ssS'my_photo-1466.jpg'
p388
(dp389
I31666
g18
sI37591
g19
ssS'my_photo-1915.jpg'
p390
(dp391
I38627
g8
sI38892
g9
sI29533
g10
ssS'my_photo-1901.jpg'
p392
(dp393
I37811
g42
sI39084
g55
sI41533
g45
ssS'my_photo-1744.jpg'
p394
(dp395
I31733
g13
sI33646
g14
ssS'my_photo-1150.jpg'
p396
(dp397
I38410
g206
sI38911
g336
ssS'my_photo-1628.jpg'
p398
(dp399
I34084
g70
sI41269
g110
ssS'my_photo-1332.jpg'
p400
(dp401
I32196
g13
ssS'my_photo-1146.jpg'
p402
(dp403
I32384
g205
ssS'my_photo-1522.jpg'
p404
(dp405
I36540
g105
ssS'my_photo-1533.jpg'
p406
(dp407
I36489
g49
sI33987
g39
ssS'my_photo-1958.jpg'
p408
(dp409
I34283
g25
sI39772
g56
sI24725
g22
ssS'my_photo-1054.jpg'
p410
(dp411
I33370
g158
sI35302
g48
ssS'my_photo-1162.jpg'
p412
(dp413
I28378
g25
sI32597
g28
ssS'my_photo-1087.jpg'
p414
(dp415
I39002
g39
sI39644
g132
sI31546
g49
ssS'my_photo-1724.jpg'
p416
(dp417
I41272
S'h04'
p418
sI42825
g59
sI38610
S'h03'
p419
ssS'my_photo-1161.jpg'
p420
(dp421
I31737
g25
sI27785
g28
ssS'my_photo-1019.jpg'
p422
(dp423
I41922
g336
sI38756
g206
ssS'my_photo-2105.jpg'
p424
(dp425
I30062
g184
ssS'my_photo-1823.jpg'
p426
(dp427
I37010
g56
sI27413
g55
ssS'my_photo-1951.jpg'
p428
(dp429
I31781
g13
sI32255
g28
ssS'my_photo-1864.jpg'
p430
(dp431
I39998
g383
ssS'my_photo-865.jpg'
p432
(dp433
I36405
g360
ssS'my_photo-1243.jpg'
p434
(dp435
I41819
g38
sI41933
g49
sI31999
g39
ssS'my_photo-1748.jpg'
p436
(dp437
I25881
g28
ssS'my_photo-1172.jpg'
p438
(dp439
I36796
g17
sI33181
g115
sI36230
g18
ssS'my_photo-1584.jpg'
p440
(dp441
I32504
g323
sI40542
g71
ssS'my_photo-1591.jpg'
p442
(dp443
I41681
g250
sI38668
g110
ssS'my_photo-1637.jpg'
p444
(dp445
I36641
g14
sI36239
g52
ssS'my_photo-1378.jpg'
p446
(dp447
I40652
g19
sI29575
g22
ssS'my_photo-951.jpg'
p448
(dp449
I36697
g250
ssS'my_photo-2056.jpg'
p450
(dp451
I35877
g351
ssS'my_photo-1441.jpg'
p452
(dp453
I39514
g271
sI40116
g270
ssS'my_photo-1543.jpg'
p454
(dp455
I37593
g193
sI31978
g159
ssS'my_photo-1945.jpg'
p456
(dp457
I38120
g52
sI36108
g129
ssS'my_photo-2171.jpg'
p458
(dp459
I36450
g115
sI30186
g184
ssS'my_photo-1218.jpg'
p460
(dp461
I41619
g56
sI25252
g25
sI35491
g22
ssS'my_photo-774.jpg'
p462
(dp463
I41786
g88
sI39205
g13
sI27190
g14
ssS'my_photo-1857.jpg'
p464
(dp465
I35177
g39
sI37069
g38
ssS'my_photo-1415.jpg'
p466
(dp467
I37514
g25
sI26458
g22
ssS'my_photo-2037.jpg'
p468
(dp469
I36727
g158
sI34124
g159
sI33903
g193
ssS'my_photo-1754.jpg'
p470
(dp471
I27651
g55
sI36125
g56
ssS'my_photo-2019.jpg'
p472
(dp473
I26440
g22
sI38562
g19
ssS'my_photo-1066.jpg'
p474
(dp475
I40159
g120
ssS'my_photo-2226.jpg'
p476
(dp477
I39883
g56
sI34309
g25
sI25029
g22
ssS'my_photo-1846.jpg'
p478
(dp479
I35330
g9
sI31179
g7
sI40774
g155
ssS'my_photo-1775.jpg'
p480
(dp481
I39049
g8
sI39111
g10
sI32541
g9
sI29169
g7
ssS'my_photo-1679.jpg'
p482
(dp483
I32507
g49
sI33516
g39
sI40159
g132
ssS'my_photo-1833.jpg'
p484
(dp485
I30289
g45
sI36618
g44
sI40490
g42
sI37566
g43
ssS'my_photo-756.jpg'
p486
(dp487
I32955
g172
ssS'my_photo-1539.jpg'
p488
(dp489
I34062
g48
sI34103
g158
ssS'my_photo-1467.jpg'
p490
(dp491
I38809
g17
sI30986
g18
ssS'my_photo-2066.jpg'
p492
(dp493
I30572
g70
ssS'my_photo-1479.jpg'
p494
(dp495
I33341
g84
ssS'my_photo-2077.jpg'
p496
(dp497
I39056
g14
sI34106
g52
ssS'my_photo-2195.jpg'
p498
(dp499
I35456
g351
ssS'my_photo-1950.jpg'
p500
(dp501
I23153
g13
sI40804
g14
ssS'my_photo-1879.jpg'
p502
(dp503
I41714
g336
sI37581
g76
ssS'my_photo-1999.jpg'
p504
(dp505
I33906
g110
ssS'my_photo-2001.jpg'
p506
(dp507
I36059
g250
ssS'my_photo-766.jpg'
p508
(dp509
I37720
g71
sI36959
g70
ssS'my_photo-1773.jpg'
p510
(dp511
I38361
g8
sI39273
g7
sI29903
g10
sI38695
g9
ssS'my_photo-1536.jpg'
p512
(dp513
I41425
g132
sI32540
g48
sI39110
g49
ssS'my_photo-1217.jpg'
p514
(dp515
I24102
g25
ssS'my_photo-2101.jpg'
p516
(dp517
I38832
g18
sI30569
g115
sI38642
g17
ssS'my_photo-1008.jpg'
p518
(dp519
I39479
g105
ssS'my_photo-1091.jpg'
p520
(dp521
I35140
g4
ssS'my_photo-1485.jpg'
p522
(dp523
I39139
g383
ssS'my_photo-1717.jpg'
p524
(dp525
I35410
g42
sI37851
g44
sI31452
g45
sI38494
g43
ssS'my_photo-799.jpg'
p526
(dp527
I28188
g255
sI39247
g267
ssS'my_photo-921.jpg'
p528
(dp529
I31718
g102
sI36895
g235
ssS'my_photo-841.jpg'
p530
(dp531
I36369
S'j03'
p532
sI31291
g137
ssS'my_photo-1117.jpg'
p533
(dp534
I39405
g159
sI27214
g193
ssS'my_photo-1267.jpg'
p535
(dp536
I36003
g77
sI39967
g140
ssS'my_photo-1188.jpg'
p537
(dp538
I41548
g120
ssS'my_photo-1263.jpg'
p539
(dp540
I34419
g206
ssS'my_photo-1084.jpg'
p541
(dp542
I33953
g48
sI35156
g158
ssS'my_photo-1402.jpg'
p543
(dp544
I37644
g140
sI39598
g77
ssS'my_photo-1299.jpg'
p545
(dp546
I41744
g56
sI29892
g22
sI35932
g25
ssS'my_photo-864.jpg'
p547
(dp548
I42708
g360
ssS'my_photo-790.jpg'
p549
(dp550
I37016
g143
sI30913
g8
sI34404
g135
sI30309
g136
sI39785
g9
ssS'my_photo-858.jpg'
p551
(dp552
I34713
g172
sI34370
g173
ssS'my_photo-1123.jpg'
p553
(dp554
I25573
g48
ssS'my_photo-930.jpg'
p555
(dp556
I39995
g172
sI42790
S'j12'
p557
ssS'my_photo-1379.jpg'
p558
(dp559
I32515
g22
sI37653
g19
ssS'my_photo-1981.jpg'
p560
(dp561
I38914
g39
sI40892
g4
sI33047
g38
ssS'my_photo-1258.jpg'
p562
(dp563
I30282
g85
sI41636
g84
ssS'my_photo-2192.jpg'
p564
(dp565
I42452
S'h01'
p566
sI39719
g120
ssS'my_photo-2021.jpg'
p567
(dp568
I38480
g18
sI32051
g19
sI32829
g22
ssS'my_photo-1343.jpg'
p569
(dp570
I33453
g18
sI36583
g19
ssS'my_photo-1041.jpg'
p571
(dp572
I38044
g17
sI31292
g18
ssS'my_photo-1199.jpg'
p573
(dp574
I29940
g205
ssS'my_photo-1929.jpg'
p575
(dp576
I38435
g418
ssS'my_photo-1767.jpg'
p577
(dp578
I33132
g43
sI41604
g44
sI39157
g62
sI32097
g63
ssS'my_photo-1982.jpg'
p579
(dp580
I33444
g4
sI40798
g38
ssS'my_photo-1257.jpg'
p581
(dp582
I36866
g85
sI35637
g83
sI35799
g84
ssS'my_photo-1316.jpg'
p583
(dp584
I30241
g168
sI41438
g292
ssS'my_photo-2104.jpg'
p585
(dp586
I33627
g115
sI33661
g184
ssS'my_photo-1500.jpg'
p587
(dp588
I35204
g158
sI33399
g48
ssS'my_photo-1743.jpg'
p589
(dp590
I41899
g13
sI32188
g14
ssS'my_photo-2034.jpg'
p591
(dp592
I40905
g159
sI32482
g193
sI39503
g184
ssS'my_photo-1077.jpg'
p593
(dp594
I37464
g17
sI36683
g18
sI35471
g115
ssS'my_photo-1157.jpg'
p595
(dp596
I35694
g13
sI34143
g88
ssS'my_photo-1977.jpg'
p597
(dp598
I34739
g49
sI34269
g48
sI36805
g132
ssS'my_photo-1301.jpg'
p599
(dp600
I31952
g22
sI38195
g19
ssS'my_photo-2057.jpg'
p601
(dp602
I40781
g419
ssS'my_photo-2183.jpg'
p603
(dp604
I39993
g132
sI31034
g48
sI37796
g49
ssS'my_photo-1375.jpg'
p605
(dp606
I26675
g25
ssS'my_photo-917.jpg'
p607
(dp608
I27920
g255
ssS'my_photo-1652.jpg'
p609
(dp610
I40265
g45
sI36362
g42
sI36893
g55
ssS'my_photo-2058.jpg'
p611
(dp612
I41344
g419
ssS'my_photo-832.jpg'
p613
(dp614
I31572
g43
sI35459
g45
sI27348
g44
sI36382
g62
ssS'my_photo-972.jpg'
p615
(dp616
I27495
g25
ssS'my_photo-1883.jpg'
p617
(dp618
I36611
g88
sI36255
S'd03'
p619
ssS'my_photo-1338.jpg'
p620
(dp621
I34643
g22
sI32195
g25
sI41893
g56
ssS'my_photo-780.jpg'
p622
(dp623
I36184
g22
sI40252
g55
sI31309
g25
sI25815
g56
ssS'my_photo-1139.jpg'
p624
(dp625
I40402
g105
sI39716
g83
ssS'my_photo-1465.jpg'
p626
(dp627
I34641
g19
sI34021
g18
ssS'my_photo-979.jpg'
p628
(dp629
I33714
g18
sI34854
g19
ssS'my_photo-943.jpg'
p630
(dp631
I39929
g71
sI34205
g323
ssS'my_photo-1560.jpg'
p632
(dp633
I34672
g22
sI33022
g19
ssS'my_photo-1715.jpg'
p634
(dp635
I38320
g42
sI36261
g55
ssS'my_photo-1363.jpg'
p636
(dp637
I39264
g76
ssS'my_photo-1229.jpg'
p638
(dp639
I33448
g115
sI38635
g184
ssS'my_photo-1216.jpg'
p640
(dp641
I29808
g28
sI30389
g25
ssS'my_photo-1760.jpg'
p642
(dp643
I35225
g42
sI39313
g45
sI41439
g55
ssS'my_photo-1538.jpg'
p644
(dp645
I40856
g158
sI28714
g48
ssS'my_photo-980.jpg'
p646
(dp647
I30545
g18
sI38363
g17
ssS'my_photo-1878.jpg'
p648
(dp649
I41201
g336
sI39811
g206
ssS'my_photo-1893.jpg'
p650
(dp651
I24921
g25
sI36139
g56
ssS'my_photo-1430.jpg'
p652
(dp653
I33195
g258
sI34660
g169
ssS'my_photo-1544.jpg'
p654
(dp655
I39585
g193
sI34954
g159
sI40969
g277
ssS'my_photo-996.jpg'
p656
(dp657
I36064
g48
sI37954
g132
sI35766
g49
ssS'my_photo-1680.jpg'
p658
(dp659
I36041
g38
sI31482
g39
ssS'my_photo-1183.jpg'
p660
(dp661
I32388
g38
sI38341
g39
sI41181
g4
ssS'my_photo-1902.jpg'
p662
(dp663
I39480
g45
sI35385
g42
sI41223
g55
ssS'my_photo-1772.jpg'
p664
(dp665
I32968
g10
ssS'my_photo-1861.jpg'
p666
(dp667
I40853
g4
ssS'my_photo-1803.jpg'
p668
(dp669
I36242
g205
ssS'my_photo-1877.jpg'
p670
(dp671
I36869
g206
ssS'my_photo-1966.jpg'
p672
(dp673
I29889
g115
sI37835
g184
ssS'my_photo-2161.jpg'
p674
(dp675
I24832
g22
sI34404
g25
sI39965
g56
ssS'my_photo-1906.jpg'
p676
(dp677
I39265
g43
sI38010
g44
sI31747
g45
sI38940
g42
ssS'my_photo-1173.jpg'
p678
(dp679
I29643
g115
sI39428
g17
ssS'my_photo-920.jpg'
p680
(dp681
I40481
g102
sI31514
g235
ssS'my_photo-1032.jpg'
p682
(dp683
I33248
g28
sI31611
g25
ssS'my_photo-846.jpg'
p684
(dp685
I35641
g255
sI31764
g267
ssS'my_photo-1277.jpg'
p686
(dp687
I29281
g25
sI31618
g28
ssS'my_photo-866.jpg'
p688
(dp689
I41270
g59
ssS'my_photo-1189.jpg'
p690
(dp691
I41940
g120
ssS'my_photo-1177.jpg'
p692
(dp693
I29293
g184
ssS'my_photo-1738.jpg'
p694
(dp695
I41897
g196
ssS'my_photo-1269.jpg'
p696
(dp697
I35869
g88
sI34238
g619
ssS'my_photo-2120.jpg'
p698
(dp699
I37008
g38
sI31970
g39
ssS'my_photo-1699.jpg'
p700
(dp701
I34542
g76
ssS'my_photo-891.jpg'
p702
(dp703
I28504
g28
sI32618
g25
ssS'my_photo-816.jpg'
p704
(dp705
I32912
g129
ssS'my_photo-1510.jpg'
p706
(dp707
I36927
g276
sI33743
g168
ssS'my_photo-1980.jpg'
p708
(dp709
I38672
g49
sI27892
g39
sI40901
g38
ssS'my_photo-2179.jpg'
p710
(dp711
I35602
g48
sI29243
g158
ssS'my_photo-885.jpg'
p712
(dp713
I38972
g52
sI37447
g14
ssS'my_photo-1259.jpg'
p714
(dp715
I37058
g85
sI31154
g205
ssS'my_photo-1494.jpg'
p716
(dp717
I29925
g39
sI39671
g49
ssS'my_photo-2127.jpg'
p718
(dp719
I42569
g351
sI37661
g120
ssS'my_photo-1541.jpg'
p720
(dp721
I37982
g159
sI33245
g158
sI41318
g193
ssS'my_photo-1346.jpg'
p722
(dp723
I32993
g17
sI36926
g18
ssS'my_photo-2082.jpg'
p724
(dp725
I29032
g13
sI34750
g28
ssS'my_photo-2180.jpg'
p726
(dp727
I32317
g48
sI32950
g158
ssS'my_photo-1620.jpg'
p728
(dp729
I35297
g44
sI35126
g63
sI35654
g62
sI30577
g43
ssS'my_photo-797.jpg'
p730
(dp731
I28703
g267
sI41550
g532
sI39407
g255
ssS'my_photo-916.jpg'
p732
(dp733
I36168
g267
sI30811
g255
ssS'my_photo-838.jpg'
p734
(dp735
I29770
g135
sI34334
g136
sI38854
g9
sI29983
g8
ssS'my_photo-1191.jpg'
p736
(dp737
I40133
g383
ssS'my_photo-1412.jpg'
p738
(dp739
I30195
g25
sI35764
g28
ssS'my_photo-1661.jpg'
p740
(dp741
I32337
g44
sI36322
g62
sI37603
g45
sI37275
g63
sI25425
g43
ssS'my_photo-1641.jpg'
p742
(dp743
I26113
g13
sI36914
g28
ssS'my_photo-2211.jpg'
p744
(dp745
I41480
g196
ssS'my_photo-1126.jpg'
p746
(dp747
I31192
g49
sI39016
g132
sI36126
g39
ssS'my_photo-1290.jpg'
p748
(dp749
I30693
g88
ssS'my_photo-958.jpg'
p750
(dp751
I25939
g14
sI41614
g88
sI37206
g13
ssS'my_photo-1733.jpg'
p752
(dp753
I36109
g110
sI40918
g70
ssS'my_photo-1689.jpg'
p754
(dp755
I37051
g105
ssS'my_photo-1961.jpg'
p756
(dp757
I38008
g18
sI31394
g19
sI32981
g22
ssS'my_photo-2045.jpg'
p758
(dp759
I38864
g39
sI30298
g49
sI37658
g132
ssS'my_photo-1882.jpg'
p760
(dp761
I35736
g140
ssS'my_photo-1284.jpg'
p762
(dp763
I30784
g18
sI34301
g19
ssS'my_photo-1306.jpg'
p764
(dp765
I37529
g18
sI32725
g17
ssS'my_photo-1801.jpg'
p766
(dp767
I37980
g85
sI33885
g205
ssS'my_photo-904.jpg'
p768
(dp769
I37578
g62
sI41802
g136
sI28466
g144
sI33910
g143
ssS'my_photo-1182.jpg'
p770
(dp771
I34697
g39
sI33299
g38
ssS'my_photo-1714.jpg'
p772
(dp773
I41692
g42
sI33533
g55
ssS'my_photo-1439.jpg'
p774
(dp775
I36210
g31
ssS'my_photo-1079.jpg'
p776
(dp777
I31058
g115
ssS'my_photo-2121.jpg'
p778
(dp779
I37424
g4
sI37541
g38
ssS'my_photo-1855.jpg'
p780
(dp781
I38663
g49
sI29695
g39
ssS'my_photo-1939.jpg'
p782
(dp783
I39603
g110
sI40775
g250
ssS'my_photo-2145.jpg'
p784
(dp785
I38883
g196
ssS'my_photo-1934.jpg'
p786
(dp787
I38396
g323
sI34479
g71
ssS'my_photo-1064.jpg'
p788
(dp789
I37608
g4
ssS'my_photo-1583.jpg'
p790
(dp791
I31356
g323
ssS'my_photo-949.jpg'
p792
(dp793
I36325
g110
ssS'my_photo-1408.jpg'
p794
(dp795
I33427
g28
sI37189
g13
ssS'my_photo-976.jpg'
p796
(dp797
I29866
g22
sI38619
g19
ssS'my_photo-1046.jpg'
p798
(dp799
I36915
g115
sI33583
g184
ssS'my_photo-1163.jpg'
p800
(dp801
I36864
g22
sI23774
g25
ssS'my_photo-1903.jpg'
p802
(dp803
I34297
g42
sI38639
g45
ssS'my_photo-1557.jpg'
p804
(dp805
I40713
g56
sI32428
g25
sI31516
g22
ssS'my_photo-1605.jpg'
p806
(dp807
I37288
g25
sI25470
g28
ssS'my_photo-1954.jpg'
p808
(dp809
I31405
g25
sI27893
g28
ssS'my_photo-987.jpg'
p810
(dp811
I35717
g193
sI39271
g184
ssS'my_photo-1496.jpg'
p812
(dp813
I40178
g132
sI38485
g39
sI31943
g49
ssS'my_photo-764.jpg'
p814
(dp815
I31508
g323
ssS'my_photo-2159.jpg'
p816
(dp817
I23632
g25
sI37132
g22
ssS'my_photo-1274.jpg'
p818
(dp819
I28920
g28
sI36742
g13
ssS'my_photo-2103.jpg'
p820
(dp821
I39844
g184
sI28156
g115
ssS'my_photo-1220.jpg'
p822
(dp823
I40426
g56
sI35779
g25
sI22918
g22
ssS'my_photo-1499.jpg'
p824
(dp825
I30909
g48
sI38567
g158
ssS'my_photo-1619.jpg'
p826
(dp827
I35496
g44
sI30817
g43
sI35822
g62
sI35529
g63
ssS'my_photo-1330.jpg'
p828
(dp829
I31338
g88
ssS'my_photo-929.jpg'
p830
(dp831
I39952
g173
sI29022
g172
ssS'my_photo-1540.jpg'
p832
(dp833
I30433
g158
sI37485
g48
ssS'my_photo-1422.jpg'
p834
(dp835
I37077
g17
sI31391
g18
ssS'my_photo-1159.jpg'
p836
(dp837
I36150
g28
sI30087
g13
ssS'my_photo-1899.jpg'
p838
(dp839
I34846
g55
ssS'my_photo-2061.jpg'
p840
(dp841
I32722
g323
ssS'my_photo-1362.jpg'
p842
(dp843
I39642
g336
ssS'my_photo-789.jpg'
p844
(dp845
I29576
g143
sI38801
g144
sI30173
g136
sI37742
g8
ssS'my_photo-1241.jpg'
p846
(dp847
I40715
g132
sI33083
g49
sI39332
g39
ssS'my_photo-1223.jpg'
p848
(dp849
I30243
g19
sI34867
g18
ssS'my_photo-1452.jpg'
p850
(dp851
I28885
g13
ssS'my_photo-1366.jpg'
p852
(dp853
I37536
g88
sI36371
g619
ssS'my_photo-2044.jpg'
p854
(dp855
I35577
g48
sI36252
g132
sI33212
g49
ssS'my_photo-2078.jpg'
p856
(dp857
I40540
g52
sI33599
g14
ssS'my_photo-779.jpg'
p858
(dp859
I36691
g28
sI24995
g25
ssS'my_photo-1831.jpg'
p860
(dp861
I34622
g45
sI40502
g44
sI36055
g42
ssS'my_photo-1604.jpg'
p862
(dp863
I26240
g28
ssS'my_photo-1776.jpg'
p864
(dp865
I29555
g7
sI34070
g9
ssS'my_photo-1297.jpg'
p866
(dp867
I29707
g25
sI37565
g28
ssS'my_photo-2117.jpg'
p868
(dp869
I37106
g132
sI31524
g49
sI39853
g39
sI37495
g48
ssS'my_photo-1400.jpg'
p870
(dp871
I38497
g76
ssS'my_photo-1470.jpg'
p872
(dp873
I37560
g168
sI32122
g169
sI39287
g276
ssS'my_photo-1473.jpg'
p874
(dp875
I35937
g168
sI36884
g92
sI40785
g292
ssS'my_photo-1056.jpg'
p876
(dp877
I40312
g49
sI31642
g48
ssS'my_photo-1104.jpg'
p878
(dp879
I26234
g22
sI33579
g25
sI39693
g56
ssS'my_photo-1947.jpg'
p880
(dp881
I30544
g14
sI41361
g13
ssS'my_photo-2173.jpg'
p882
(dp883
I29545
g184
ssS'my_photo-2114.jpg'
p884
(dp885
I25220
g48
sI41389
g158
ssS'my_photo-1827.jpg'
p886
(dp887
I37769
g42
sI38745
g55
sI41455
g45
ssS'my_photo-959.jpg'
p888
(dp889
I31496
g14
sI30954
g13
ssS'my_photo-1206.jpg'
p890
(dp891
I41572
g140
sI36069
g77
ssS'my_photo-1854.jpg'
p892
(dp893
I32736
g49
sI39830
g132
sI37886
g39
ssS'my_photo-1118.jpg'
p894
(dp895
I30081
g193
sI33939
g159
sI40159
g158
ssS'my_photo-1524.jpg'
p896
(dp897
I40975
g383
ssS'my_photo-1800.jpg'
p898
(dp899
I37142
g205
sI34726
g85
ssS'my_photo-1442.jpg'
p900
(dp901
I40612
g270
ssS'my_photo-1450.jpg'
p902
(dp903
I32174
g88
sI40711
g13
ssS'my_photo-1665.jpg'
p904
(dp905
I39309
g10
sI35529
g63
sI41029
g184
sI39974
g9
sI40855
g143
ssS'my_photo-830.jpg'
p906
(dp907
I39563
g45
sI34948
g42
sI40925
g55
ssS'my_photo-1382.jpg'
p908
(dp909
I39856
g17
sI30819
g18
sI41670
g19
ssS'my_photo-1393.jpg'
p910
(dp911
I41161
g92
sI35450
g292
sI40727
g168
ssS'my_photo-887.jpg'
p912
(dp913
I26353
g13
sI36295
g14
ssS'my_photo-851.jpg'
p914
(dp915
I37617
g102
sI33877
g235
ssS'my_photo-1782.jpg'
p916
(dp917
I37152
g80
sI36970
g132
sI35684
g48
sI38174
g49
ssS'my_photo-2207.jpg'
p918
(dp919
I34102
g110
ssS'my_photo-806.jpg'
p920
(dp921
I36882
g71
sI37858
g323
ssS'my_photo-910.jpg'
p922
(dp923
I39461
g135
sI39710
g532
sI29589
g137
ssS'my_photo-1870.jpg'
p924
(dp925
I31910
g85
ssS'my_photo-1765.jpg'
p926
(dp927
I32232
g44
sI36066
g45
sI39643
g62
sI31086
g43
ssS'my_photo-1623.jpg'
p928
(dp929
I34747
g323
ssS'my_photo-1528.jpg'
p930
(dp931
I36710
g4
ssS'my_photo-1842.jpg'
p932
(dp933
I39040
g8
sI29338
g10
sI39247
g9
ssS'my_photo-1324.jpg'
p934
(dp935
I38932
g76
ssS'my_photo-1331.jpg'
p936
(dp937
I38845
g88
sI36383
g13
ssS'my_photo-1497.jpg'
p938
(dp939
I40330
g132
sI33325
g48
sI38310
g49
ssS'my_photo-941.jpg'
p940
(dp941
I39711
g323
ssS'my_photo-2176.jpg'
p942
(dp943
I27659
g193
sI34932
g159
ssS'my_photo-1001.jpg'
p944
(dp945
I39041
g38
sI38711
g4
ssS'my_photo-1160.jpg'
p946
(dp947
I23650
g28
ssS'my_photo-1086.jpg'
p948
(dp949
I35560
g48
sI37512
g132
sI35532
g49
ssS'my_photo-933.jpg'
p950
(dp951
I39038
S'j13'
p952
ssS'my_photo-1221.jpg'
p953
(dp954
I28313
g22
sI36595
g19
ssS'my_photo-1015.jpg'
p955
(dp956
I31037
g205
sI40862
g85
ssS'my_photo-1793.jpg'
p957
(dp958
I40631
g383
ssS'my_photo-1848.jpg'
p959
(dp960
I30410
g155
ssS'my_photo-2194.jpg'
p961
(dp962
I39671
g351
ssS'my_photo-1653.jpg'
p963
(dp964
I35035
g42
sI37923
g55
sI38766
g45
ssS'my_photo-1964.jpg'
p965
(dp966
I36176
g115
sI35720
g17
sI32772
g18
ssS'my_photo-1275.jpg'
p967
(dp968
I25064
g28
sI41123
g13
ssS'my_photo-1534.jpg'
p969
(dp970
I39930
g132
sI32124
g49
sI39110
g39
ssS'my_photo-2153.jpg'
p971
(dp972
I36652
g28
sI27263
g13
ssS'my_photo-2190.jpg'
p973
(dp974
I37776
g4
ssS'my_photo-1155.jpg'
p975
(dp976
I34410
g88
sI34541
g619
ssS'my_photo-1354.jpg'
p977
(dp978
I40091
g292
sI31797
g168
sI41958
g92
ssS'my_photo-2046.jpg'
p979
(dp980
I34353
g49
sI32594
g39
sI41975
g132
ssS'my_photo-1515.jpg'
p981
(dp982
I35717
g91
sI39134
g92
ssS'my_photo-1122.jpg'
p983
(dp984
I35334
g158
sI30783
g48
ssS'my_photo-1058.jpg'
p985
(dp986
I34649
g49
sI37673
g132
sI37215
g48
ssS'my_photo-1158.jpg'
p987
(dp988
I38987
g88
sI31524
g13
ssS'my_photo-1399.jpg'
p989
(dp990
I39237
g336
ssS'my_photo-1790.jpg'
p991
(dp992
I39534
g4
ssS'my_photo-1207.jpg'
p993
(dp994
I39136
g77
sI34789
g140
ssS'my_photo-1219.jpg'
p995
(dp996
I39245
g56
sI32422
g25
sI27823
g22
ssS'my_photo-2036.jpg'
p997
(dp998
I40488
g158
sI33945
g159
sI29643
g193
ssS'my_photo-1103.jpg'
p999
(dp1000
I40947
g56
sI34700
g22
sI26198
g25
ssS'my_photo-906.jpg'
p1001
(dp1002
I33594
g8
sI33722
g143
sI27726
g136
sI38246
g135
ssS'my_photo-1979.jpg'
p1003
(dp1004
I34768
g39
sI40320
g132
sI32998
g49
ssS'my_photo-1946.jpg'
p1005
(dp1006
I40841
g14
sI32333
g52
sI40670
g129
ssS'my_photo-1513.jpg'
p1007
(dp1008
I31347
g92
sI40796
g168
ssS'my_photo-1577.jpg'
p1009
(dp1010
I37221
g360
ssS'my_photo-1308.jpg'
p1011
(dp1012
I38097
g17
sI37396
g258
ssS'my_photo-1701.jpg'
p1013
(dp1014
I33419
g140
sI39950
g77
ssS'my_photo-2119.jpg'
p1015
(dp1016
I35777
g49
sI29135
g39
ssS'my_photo-1405.jpg'
p1017
(dp1018
I32402
g88
sI41023
g13
ssS'my_photo-1632.jpg'
p1019
(dp1020
I41864
g250
ssS'my_photo-1725.jpg'
p1021
(dp1022
I37813
g418
ssS'my_photo-831.jpg'
p1023
(dp1024
I32434
g45
sI36835
g42
sI39095
g44
ssS'my_photo-2018.jpg'
p1025
(dp1026
I25482
g22
sI34028
g25
sI39861
g56
ssS'my_photo-1708.jpg'
p1027
(dp1028
I28082
g28
sI36179
g13
ssS'my_photo-2100.jpg'
p1029
(dp1030
I33448
g115
sI35505
g18
sI36129
g17
ssS'my_photo-1063.jpg'
p1031
(dp1032
I40473
g38
sI37383
g4
ssS'my_photo-2137.jpg'
p1033
(dp1034
I39241
g70
sI31533
g71
ssS'my_photo-1762.jpg'
p1035
(dp1036
I35321
g42
sI35826
g45
sI41588
g44
ssS'my_photo-1914.jpg'
p1037
(dp1038
I33914
g10
ssS'my_photo-1891.jpg'
p1039
(dp1040
I29992
g28
sI33559
g25
ssS'my_photo-922.jpg'
p1041
(dp1042
I30774
g102
ssS'my_photo-1731.jpg'
p1043
(dp1044
I32418
g70
ssS'my_photo-989.jpg'
p1045
(dp1046
I39426
g158
sI35842
g159
sI33983
g193
ssS'my_photo-1131.jpg'
p1047
(dp1048
I31708
g4
sI41973
g38
ssS'my_photo-1147.jpg'
p1049
(dp1050
I36199
g205
ssS'my_photo-1448.jpg'
p1051
(dp1052
I35866
g88
sI37446
g619
ssS'my_photo-882.jpg'
p1053
(dp1054
I39592
g129
ssS'my_photo-1507.jpg'
p1055
(dp1056
I34649
g277
sI36636
g276
ssS'my_photo-919.jpg'
p1057
(dp1058
I37689
g255
sI31611
g235
ssS'my_photo-1349.jpg'
p1059
(dp1060
I37483
g169
sI33461
g258
ssS'my_photo-1445.jpg'
p1061
(dp1062
I40505
g76
ssS'my_photo-1704.jpg'
p1063
(dp1064
I27883
g88
sI38407
g13
ssS'my_photo-1648.jpg'
p1065
(dp1066
I35448
g22
sI35081
g25
sI24099
g56
sI36580
g55
ssS'my_photo-1132.jpg'
p1067
(dp1068
I35923
g4
ssS'my_photo-932.jpg'
p1069
(dp1070
I39168
g557
ssS'my_photo-754.jpg'
p1071
(dp1072
I30542
S'j09'
p1073
ssS'my_photo-1386.jpg'
p1074
(dp1075
I39506
g17
sI35645
g258
ssS'my_photo-1116.jpg'
p1076
(dp1077
I36416
g193
sI35764
g184
ssS'my_photo-1936.jpg'
p1078
(dp1079
I31172
g70
ssS'my_photo-2167.jpg'
p1080
(dp1081
I36273
g115
sI35718
g17
sI32745
g18
ssS'my_photo-1749.jpg'
p1082
(dp1083
I27262
g28
sI36846
g25
ssS'my_photo-808.jpg'
p1084
(dp1085
I37684
g71
sI36925
g70
ssS'my_photo-1993.jpg'
p1086
(dp1087
I35123
g71
sI36790
g323
ssS'my_photo-1693.jpg'
p1088
(dp1089
I34448
g85
sI40061
g83
sI37335
g84
ssS'my_photo-1718.jpg'
p1090
(dp1091
I29874
g45
sI39491
g62
sI31356
g44
sI32223
g43
ssS'my_photo-2055.jpg'
p1092
(dp1093
I38111
g351
ssS'my_photo-847.jpg'
p1094
(dp1095
I28104
g255
sI39552
g267
ssS'my_photo-1205.jpg'
p1096
(dp1097
I39415
g76
ssS'my_photo-1055.jpg'
p1098
(dp1099
I40224
g158
sI29428
g48
ssS'my_photo-1672.jpg'
p1100
(dp1101
I33902
g7
sI38237
g9
sI41614
g158
sI32142
g155
ssS'my_photo-1740.jpg'
p1102
(dp1103
I33785
g129
ssS'my_photo-1998.jpg'
p1104
(dp1105
I36354
g110
sI38117
g70
ssS'my_photo-1635.jpg'
p1106
(dp1107
I31329
g129
ssS'my_photo-1852.jpg'
p1108
(dp1109
I35384
g132
sI36564
g49
sI36133
g48
sI38661
g80
ssS'my_photo-1178.jpg'
p1110
(dp1111
I39168
g193
sI33079
g184
ssS'my_photo-1575.jpg'
p1112
(dp1113
I38914
g115
sI38091
g18
sI31461
g17
ssS'my_photo-2220.jpg'
p1114
(dp1115
I31418
g13
sI32571
g28
ssS'my_photo-1052.jpg'
p1116
(dp1117
I37811
g158
sI36014
g159
sI35823
g193
ssS'my_photo-1398.jpg'
p1118
(dp1119
I40767
g270
ssS'my_photo-2198.jpg'
p1120
(dp1121
I41017
g418
sI39511
g323
ssS'my_photo-1983.jpg'
p1122
(dp1123
I37751
g4
ssS'my_photo-1250.jpg'
p1124
(dp1125
I41673
g120
ssS'my_photo-1357.jpg'
p1126
(dp1127
I40233
g31
sI40213
g292
ssS'my_photo-1262.jpg'
p1128
(dp1129
I34977
g206
ssS'my_photo-1420.jpg'
p1130
(dp1131
I30389
g18
sI36613
g19
ssS'my_photo-1736.jpg'
p1132
(dp1133
I40657
g250
ssS'my_photo-1410.jpg'
p1134
(dp1135
I36978
g25
sI26773
g28
ssS'my_photo-824.jpg'
p1136
(dp1137
I26152
g25
sI37860
g22
sI30797
g56
ssS'my_photo-1044.jpg'
p1138
(dp1139
I30093
g115
ssS'my_photo-1031.jpg'
p1140
(dp1141
I25716
g28
ssS'my_photo-1815.jpg'
p1142
(dp1143
I31017
g13
ssS'my_photo-1858.jpg'
p1144
(dp1145
I40641
g4
sI37009
g38
ssS'my_photo-1304.jpg'
p1146
(dp1147
I30634
g18
sI40851
g19
ssS'my_photo-2135.jpg'
p1148
(dp1149
I32018
g323
sI39835
g71
ssS'my_photo-1144.jpg'
p1150
(dp1151
I30396
g85
sI37533
g205
ssS'my_photo-771.jpg'
p1152
(dp1153
I40442
g196
ssS'my_photo-1839.jpg'
p1154
(dp1155
I35471
g63
ssS'my_photo-1292.jpg'
p1156
(dp1157
I31203
g13
ssS'my_photo-1764.jpg'
p1158
(dp1159
I35400
g44
sI30440
g45
sI36429
g43
sI41485
g42
ssS'my_photo-1600.jpg'
p1160
(dp1161
I31401
g14
sI32715
g13
ssS'my_photo-1309.jpg'
p1162
(dp1163
I39643
g169
sI33246
g258
ssS'my_photo-1413.jpg'
p1164
(dp1165
I27964
g25
ssS'my_photo-1198.jpg'
p1166
(dp1167
I31874
g85
sI35990
g205
ssS'my_photo-1890.jpg'
p1168
(dp1169
I26670
g28
ssS'my_photo-1558.jpg'
p1170
(dp1171
I24045
g22
ssS'my_photo-1956.jpg'
p1172
(dp1173
I36915
g22
sI23725
g25
ssS'my_photo-1741.jpg'
p1174
(dp1175
I39091
g129
sI38940
g52
ssS'my_photo-1840.jpg'
p1176
(dp1177
I37821
g10
ssS'my_photo-1294.jpg'
p1178
(dp1179
I32098
g28
sI38386
g13
ssS'my_photo-1192.jpg'
p1180
(dp1181
I36334
g105
ssS'my_photo-1017.jpg'
p1182
(dp1183
I37049
g206
ssS'my_photo-1597.jpg'
p1184
(dp1185
I38957
g52
sI35750
g129
ssS'my_photo-1825.jpg'
p1186
(dp1187
I41465
g42
sI35236
g55
ssS'my_photo-2081.jpg'
p1188
(dp1189
I24801
g13
ssS'my_photo-2204.jpg'
p1190
(dp1191
I30705
g70
ssS'my_photo-1799.jpg'
p1192
(dp1193
I41929
g84
sI33404
g85
ssS'my_photo-749.jpg'
p1194
(dp1195
I28812
g235
sI40471
g255
ssS'my_photo-985.jpg'
p1196
(dp1197
I29749
g184
ssS'my_photo-757.jpg'
p1198
(dp1199
I42364
g172
sI39853
g557
ssS'my_photo-1480.jpg'
p1200
(dp1201
I34116
g84
ssS'my_photo-1096.jpg'
p1202
(dp1203
I36904
g105
ssS'my_photo-988.jpg'
p1204
(dp1205
I28508
g193
sI39398
g159
ssS'my_photo-1937.jpg'
p1206
(dp1207
I35252
g110
sI38885
g70
ssS'my_photo-2160.jpg'
p1208
(dp1209
I29818
g22
sI31011
g25
sI39004
g56
ssS'my_photo-1810.jpg'
p1210
(dp1211
I36259
g140
sI41831
g77
ssS'my_photo-1667.jpg'
p1212
(dp1213
I39337
g9
sI41490
g184
sI38668
g8
sI29906
g10
ssS'my_photo-1272.jpg'
p1214
(dp1215
I27948
g13
ssS'my_photo-1913.jpg'
p1216
(dp1217
I37049
g10
ssS'my_photo-1021.jpg'
p1218
(dp1219
I37040
g76
ssS'my_photo-2010.jpg'
p1220
(dp1221
I36994
g28
sI26822
g13
ssS'my_photo-873.jpg'
p1222
(dp1223
I33152
g71
sI40295
g70
ssS'my_photo-973.jpg'
p1224
(dp1225
I27152
g25
sI37706
g22
ssS'my_photo-1140.jpg'
p1226
(dp1227
I35616
g83
sI40242
g84
ssS'my_photo-2071.jpg'
p1228
(dp1229
I34983
g250
ssS'my_photo-2150.jpg'
p1230
(dp1231
I24642
g14
sI37061
g13
sI41287
g88
ssS'my_photo-1374.jpg'
p1232
(dp1233
I29075
g25
ssS'my_photo-1761.jpg'
p1234
(dp1235
I38353
g45
sI34001
g42
ssS'my_photo-1553.jpg'
p1236
(dp1237
I24891
g28
ssS'my_photo-1429.jpg'
p1238
(dp1239
I31464
g258
sI37384
g169
ssS'my_photo-794.jpg'
p1240
(dp1241
I34994
g137
sI32733
g532
ssS'my_photo-2026.jpg'
p1242
(dp1243
I30577
g18
sI36095
g17
sI37959
g115
ssS'my_photo-837.jpg'
p1244
(dp1245
I32928
g143
sI39130
g135
sI27476
g136
sI34039
g8
ssS'my_photo-1726.jpg'
p1246
(dp1247
I39336
g323
ssS'my_photo-1907.jpg'
p1248
(dp1249
I34848
g43
sI32043
g45
sI34148
g44
ssS'my_photo-1463.jpg'
p1250
(dp1251
I38810
g18
sI35803
g22
sI32109
g19
ssS'my_photo-1574.jpg'
p1252
(dp1253
I38944
g115
sI38099
g18
sI31435
g17
ssS'my_photo-804.jpg'
p1254
(dp1255
I39873
g952
ssS'my_photo-909.jpg'
p1256
(dp1257
I37434
g8
sI38123
g9
sI30164
g135
sI35901
g137
ssS'my_photo-2126.jpg'
p1258
(dp1259
I42380
g566
sI39182
g120
ssS'my_photo-810.jpg'
p1260
(dp1261
I35181
g70
ssS'my_photo-2091.jpg'
p1262
(dp1263
I36547
g19
sI28556
g22
ssS'my_photo-1176.jpg'
p1264
(dp1265
I36170
g115
sI30293
g184
ssS'my_photo-1347.jpg'
p1266
(dp1267
I36138
g17
sI39733
g258
ssS'my_photo-1822.jpg'
p1268
(dp1269
I34585
g55
sI37956
g25
sI36549
g22
sI28334
g56
ssS'my_photo-1774.jpg'
p1270
(dp1271
I37554
g8
sI32839
g10
sI36221
g7
sI35471
g9
ssS'my_photo-2182.jpg'
p1272
(dp1273
I27089
g48
sI41261
g49
ssS'my_photo-1356.jpg'
p1274
(dp1275
I37264
g292
sI41171
g92
ssS'my_photo-1916.jpg'
p1276
(dp1277
I37204
g7
sI36516
g9
sI31758
g10
sI37591
g8
ssS'my_photo-997.jpg'
p1278
(dp1279
I31913
g49
sI38757
g39
sI39734
g132
ssS'my_photo-1323.jpg'
p1280
(dp1281
I40274
g336
ssS'my_photo-1268.jpg'
p1282
(dp1283
I41096
g77
sI33840
g140
ssS'my_photo-1649.jpg'
p1284
(dp1285
I27992
g55
sI33657
g56
sI37739
g22
ssS'my_photo-1431.jpg'
p1286
(dp1287
I40953
g168
sI38818
g258
sI39580
g276
sI29754
g169
ssS'my_photo-1145.jpg'
p1288
(dp1289
I29985
g205
sI37599
g85
ssS'my_photo-1106.jpg'
p1290
(dp1291
I32168
g22
sI32354
g19
sI38517
g18
ssS'my_photo-1168.jpg'
p1292
(dp1293
I29016
g19
sI37478
g22
sI35862
g18
ssS'my_photo-1984.jpg'
p1294
(dp1295
I40469
g4
ssS'my_photo-1369.jpg'
p1296
(dp1297
I30414
g13
ssS'my_photo-860.jpg'
p1298
(dp1299
I39627
g172
ssS'my_photo-809.jpg'
p1300
(dp1301
I31453
g70
ssS'my_photo-795.jpg'
p1302
(dp1303
I35096
g267
sI29735
g532
ssS'my_photo-800.jpg'
p1304
(dp1305
I35880
g173
sI41150
g1073
ssS'my_photo-2229.jpg'
p1306
(dp1307
I36090
g18
sI29219
g19
sI37599
g22
ssS'my_photo-1100.jpg'
p1308
(dp1309
I34200
g83
sI37178
g84
ssS'my_photo-1926.jpg'
p1310
(dp1311
I36770
g49
sI33247
g39
ssS'my_photo-1295.jpg'
p1312
(dp1313
I28606
g28
ssS'my_photo-1630.jpg'
p1314
(dp1315
I38208
g110
ssS'my_photo-1769.jpg'
p1316
(dp1317
I33710
g63
ssS'my_photo-1612.jpg'
p1318
(dp1319
I35400
g55
sI41563
g42
ssS'my_photo-1242.jpg'
p1320
(dp1321
I36168
g39
sI36187
g49
ssS'my_photo-2174.jpg'
p1322
(dp1323
I34826
g193
sI37323
g184
ssS'my_photo-962.jpg'
p1324
(dp1325
I32907
g28
sI33517
g13
ssS'my_photo-1012.jpg'
p1326
(dp1327
I32900
g85
ssS'my_photo-748.jpg'
p1328
(dp1329
I32720
g255
sI36772
g235
ssS'my_photo-2208.jpg'
p1330
(dp1331
I38803
g110
sI41588
g250
ssS'my_photo-1377.jpg'
p1332
(dp1333
I36514
g25
sI28710
g22
sI41854
g56
ssS'my_photo-890.jpg'
p1334
(dp1335
I24999
g28
ssS'my_photo-1179.jpg'
p1336
(dp1337
I41032
g184
sI40433
g159
sI30558
g193
ssS'my_photo-1039.jpg'
p1338
(dp1339
I35669
g18
sI33109
g19
ssS'my_photo-2205.jpg'
p1340
(dp1341
I34472
g70
sI41011
g110
ssS'my_photo-2011.jpg'
p1342
(dp1343
I36332
g13
sI28607
g28
ssS'my_photo-874.jpg'
p1344
(dp1345
I31918
g70
ssS'my_photo-1694.jpg'
p1346
(dp1347
I32851
g85
sI34911
g205
ssS'my_photo-1516.jpg'
p1348
(dp1349
I41514
g84
sI40540
g91
ssS'my_photo-1098.jpg'
p1350
(dp1351
I36059
g83
sI38820
g84
ssS'my_photo-1053.jpg'
p1352
(dp1353
I40194
g159
sI30260
g158
ssS'my_photo-1260.jpg'
p1354
(dp1355
I31601
g205
ssS'my_photo-1210.jpg'
p1356
(dp1357
I41437
g619
sI41005
g13
sI28487
g88
ssS'my_photo-844.jpg'
p1358
(dp1359
I34177
g532
sI30833
g267
ssS'my_photo-1585.jpg'
p1360
(dp1361
I30589
g71
ssS'my_photo-1640.jpg'
p1362
(dp1363
I26145
g13
sI33989
g14
ssS'my_photo-994.jpg'
p1364
(dp1365
I27675
g48
ssS'my_photo-2089.jpg'
p1366
(dp1367
I27795
g22
sI39348
g56
sI32543
g25
ssS'my_photo-1660.jpg'
p1368
(dp1369
I30168
g44
sI30849
g45
sI30811
g43
sI39099
g62
ssS'my_photo-2151.jpg'
p1370
(dp1371
I31088
g13
sI41770
g88
sI29186
g14
ssS'my_photo-1588.jpg'
p1372
(dp1373
I41153
g110
sI34772
g70
ssS'my_photo-772.jpg'
p1374
(dp1375
I40820
g129
ssS'my_photo-948.jpg'
p1376
(dp1377
I32327
g110
ssS'my_photo-1384.jpg'
p1378
(dp1379
I38340
g18
sI32727
g17
ssS'my_photo-1785.jpg'
p1380
(dp1381
I37277
g49
sI31719
g39
ssS'my_photo-1322.jpg'
p1382
(dp1383
I41093
g271
sI41029
g270
ssS'my_photo-1222.jpg'
p1384
(dp1385
I33427
g19
sI31091
g22
ssS'my_photo-811.jpg'
p1386
(dp1387
I32358
g110
ssS'my_photo-1230.jpg'
p1388
(dp1389
I31529
g184
ssS'my_photo-2168.jpg'
p1390
(dp1391
I36513
g18
sI32958
g115
sI36937
g17
ssS'my_photo-942.jpg'
p1392
(dp1393
I35042
g323
ssS'my_photo-2028.jpg'
p1394
(dp1395
I31929
g115
sI37490
g18
sI37814
g17
ssS'my_photo-1373.jpg'
p1396
(dp1397
I30170
g28
sI34964
g25
ssS'my_photo-1917.jpg'
p1398
(dp1399
I38714
g8
sI30107
g7
sI38220
g10
sI32326
g9
ssS'my_photo-2109.jpg'
p1400
(dp1401
I28218
g193
sI34699
g159
sI41951
g158
ssS'my_photo-2067.jpg'
p1402
(dp1403
I36392
g70
sI38791
g110
ssS'my_photo-1751.jpg'
p1404
(dp1405
I39568
g56
sI25658
g25
ssS'my_photo-2102.jpg'
p1406
(dp1407
I27442
g115
sI41658
g184
ssS'my_photo-1716.jpg'
p1408
(dp1409
I34246
g42
sI39638
g55
sI38535
g45
ssS'my_photo-1884.jpg'
p1410
(dp1411
I33162
g88
sI41111
g619
ssS'my_photo-1918.jpg'
p1412
(dp1413
I34952
g7
sI36180
g155
sI39047
g9
ssS'my_photo-1931.jpg'
p1414
(dp1415
I40003
g323
ssS'my_photo-1057.jpg'
p1416
(dp1417
I39412
g132
sI34589
g48
sI37229
g49
ssS'my_photo-1483.jpg'
p1418
(dp1419
I35467
g105
ssS'my_photo-1610.jpg'
p1420
(dp1421
I32664
g55
sI30948
g56
sI37093
g22
ssS'my_photo-1388.jpg'
p1422
(dp1423
I32027
g169
sI37302
g258
ssS'my_photo-1038.jpg'
p1424
(dp1425
I37479
g22
sI38037
g18
sI31213
g19
ssS'my_photo-1860.jpg'
p1426
(dp1427
I37549
g4
ssS'my_photo-1647.jpg'
p1428
(dp1429
I29843
g56
sI25750
g25
sI36695
g22
ssS'my_photo-2115.jpg'
p1430
(dp1431
I27632
g48
sI41953
g80
sI40898
g49
ssS'my_photo-1432.jpg'
p1432
(dp1433
I37925
g168
sI32574
g169
ssS'my_photo-875.jpg'
p1434
(dp1435
I41738
g110
sI35803
g70
ssS'my_photo-2228.jpg'
p1436
(dp1437
I31600
g19
sI33265
g22
sI38262
g18
ssS'my_photo-861.jpg'
p1438
(dp1439
I34699
g557
ssS'my_photo-1367.jpg'
p1440
(dp1441
I40954
g619
sI34037
g88
ssS'my_photo-1967.jpg'
p1442
(dp1443
I33060
g115
sI34079
g184
ssS'my_photo-1033.jpg'
p1444
(dp1445
I26001
g25
ssS'my_photo-1392.jpg'
p1446
(dp1447
I41462
g92
sI37686
g168
sI35575
g292
ssS'my_photo-1061.jpg'
p1448
(dp1449
I32178
g39
sI40322
g38
ssS'my_photo-2004.jpg'
p1450
(dp1451
I38962
g129
ssS'my_photo-1101.jpg'
p1452
(dp1453
I31355
g28
sI29407
g25
ssS'my_photo-1156.jpg'
p1454
(dp1455
I39545
g619
sI30627
g88
ssS'my_photo-1976.jpg'
p1456
(dp1457
I41484
g49
sI41892
g80
sI27036
g48
ssS'my_photo-1394.jpg'
p1458
(dp1459
I41890
g292
sI39340
g31
ssS'my_photo-2227.jpg'
p1460
(dp1461
I38174
g19
sI26911
g22
ssS'my_photo-1805.jpg'
p1462
(dp1463
I33934
g206
ssS'my_photo-2175.jpg'
p1464
(dp1465
I40308
g159
sI30428
g193
sI41399
g184
ssS'my_photo-1447.jpg'
p1466
(dp1467
I37137
g140
ssS'my_photo-1469.jpg'
p1468
(dp1469
I40480
g168
sI29545
g169
sI38802
g276
sI38310
g258
ssS'my_photo-1376.jpg'
p1470
(dp1471
I33144
g22
sI41289
g56
sI33508
g25
ssS'my_photo-1745.jpg'
p1472
(dp1473
I27130
g13
sI38596
g14
ssS'my_photo-1062.jpg'
p1474
(dp1475
I38498
g39
sI33659
g38
ssS'my_photo-2088.jpg'
p1476
(dp1477
I29222
g25
sI39902
g56
sI32279
g22
ssS'my_photo-1691.jpg'
p1478
(dp1479
I38865
g83
ssS'my_photo-893.jpg'
p1480
(dp1481
I35350
g56
sI22623
g25
ssS'my_photo-1905.jpg'
p1482
(dp1483
I40041
g44
sI36729
g42
sI34167
g45
ssS'my_photo-2083.jpg'
p1484
(dp1485
I30576
g28
sI33865
g13
ssS'my_photo-869.jpg'
p1486
(dp1487
I36677
g418
ssS'my_photo-1471.jpg'
p1488
(dp1489
I39546
g276
sI34927
g169
sI34759
g168
ssS'my_photo-1174.jpg'
p1490
(dp1491
I41330
g184
sI27382
g115
ssS'my_photo-1184.jpg'
p1492
(dp1493
I33920
g4
sI40234
g38
ssS'my_photo-1561.jpg'
p1494
(dp1495
I34477
g18
sI33287
g19
ssS'my_photo-1265.jpg'
p1496
(dp1497
I39253
g336
sI36239
g76
ssS'my_photo-1492.jpg'
p1498
(dp1499
I39184
g39
sI34523
g38
ssS'my_photo-848.jpg'
p1500
(dp1501
I33187
g255
sI36190
g235
ssS'my_photo-1099.jpg'
p1502
(dp1503
I37858
g84
sI34951
g83
ssS'my_photo-1545.jpg'
p1504
(dp1505
I35277
g277
sI39437
g159
ssS'my_photo-995.jpg'
p1506
(dp1507
I33394
g48
sI40635
g132
sI38578
g49
ssS'my_photo-1368.jpg'
p1508
(dp1509
I38820
g13
sI35958
g88
ssS'my_photo-845.jpg'
p1510
(dp1511
I38233
g532
sI27671
g267
ssS'my_photo-2169.jpg'
p1512
(dp1513
I27422
g115
sI41319
g184
ssS'my_photo-1973.jpg'
p1514
(dp1515
I31426
g193
sI33979
g159
sI38805
g158
ssS'my_photo-1885.jpg'
p1516
(dp1517
I36118
g88
sI37766
g13
ssS'my_photo-1568.jpg'
p1518
(dp1519
I38633
g115
sI35563
g18
sI31126
g17
ssS'my_photo-1602.jpg'
p1520
(dp1521
I37451
g28
sI28829
g13
ssS'my_photo-1351.jpg'
p1522
(dp1523
I32729
g169
sI40018
g168
ssS'my_photo-912.jpg'
p1524
(dp1525
I30561
g532
sI34433
g267
ssS'my_photo-1291.jpg'
p1526
(dp1527
I34493
g88
sI39774
g13
ssS'my_photo-1080.jpg'
p1528
(dp1529
I32319
g193
ssS'my_photo-1142.jpg'
p1530
(dp1531
I36144
g85
sI35442
g84
sI36653
g83
ssS'my_photo-1629.jpg'
p1532
(dp1533
I30993
g110
sI41354
g70
ssS'my_photo-2053.jpg'
p1534
(dp1535
I41337
g120
sI44623
g566
ssS'my_photo-1050.jpg'
p1536
(dp1537
I28610
g193
sI37863
g159
ssS'my_photo-850.jpg'
p1538
(dp1539
I30983
g235
sI41047
g102
ssS'my_photo-1072.jpg'
p1540
(dp1541
I38714
g83
sI40308
g84
ssS'my_photo-1451.jpg'
p1542
(dp1543
I40948
g88
sI31895
g13
ssS'my_photo-1228.jpg'
p1544
(dp1545
I30688
g115
ssS'my_photo-1734.jpg'
p1546
(dp1547
I37729
g110
ssS'my_photo-1676.jpg'
p1548
(dp1549
I32088
g48
sI38876
g49
sI37787
g132
sI39972
g9
sI31439
g80
ssS'my_photo-2029.jpg'
p1550
(dp1551
I41984
g184
sI27622
g115
ssS'my_photo-785.jpg'
p1552
(dp1553
I36872
g43
sI40195
g42
sI29182
g45
sI35222
g44
ssS'my_photo-1696.jpg'
p1554
(dp1555
I41736
g205
sI34834
g206
ssS'my_photo-1802.jpg'
p1556
(dp1557
I32666
g205
ssS'my_photo-2017.jpg'
p1558
(dp1559
I39204
g56
sI30541
g22
sI30654
g25
ssS'my_photo-1383.jpg'
p1560
(dp1561
I37488
g17
sI32579
g18
ssS'my_photo-2185.jpg'
p1562
(dp1563
I29705
g49
sI37908
g39
sI38382
g132
ssS'my_photo-1938.jpg'
p1564
(dp1565
I34742
g110
ssS'my_photo-1225.jpg'
p1566
(dp1567
I29292
g18
sI37157
g17
ssS'my_photo-1564.jpg'
p1568
(dp1569
I30098
g18
sI37603
g17
ssS'my_photo-2191.jpg'
p1570
(dp1571
I40448
g4
ssS'my_photo-1042.jpg'
p1572
(dp1573
I37372
g17
sI38507
g115
sI33540
g18
ssS'my_photo-1611.jpg'
p1574
(dp1575
I27936
g55
sI36382
g56
ssS'my_photo-2024.jpg'
p1576
(dp1577
I37560
g17
sI39658
g19
sI27237
g18
ssS'my_photo-1127.jpg'
p1578
(dp1579
I37128
g49
sI27241
g39
ssS'my_photo-2030.jpg'
p1580
(dp1581
I28506
g115
sI39399
g184
ssS'my_photo-1059.jpg'
p1582
(dp1583
I37780
g39
sI40326
g132
sI33015
g49
ssS'my_photo-1404.jpg'
p1584
(dp1585
I35592
g88
sI37564
g619
ssS'my_photo-1686.jpg'
p1586
(dp1587
I40363
g120
ssS'my_photo-1529.jpg'
p1588
(dp1589
I35889
g4
ssS'my_photo-755.jpg'
p1590
(dp1591
I31290
g173
sI39301
g172
ssS'my_photo-1871.jpg'
p1592
(dp1593
I32485
g85
sI39382
g205
ssS'my_photo-1433.jpg'
p1594
(dp1595
I39082
g169
sI30587
g168
ssS'my_photo-1319.jpg'
p1596
(dp1597
I36471
g31
ssS'my_photo-1578.jpg'
p1598
(dp1599
I39859
g360
ssS'my_photo-1464.jpg'
p1600
(dp1601
I31712
g19
sI37003
g18
ssS'my_photo-1511.jpg'
p1602
(dp1603
I31385
g168
sI41602
g292
sI41251
g92
ssS'my_photo-1784.jpg'
p1604
(dp1605
I38059
g132
sI39092
g39
sI31221
g49
ssS'my_photo-1190.jpg'
p1606
(dp1607
I40321
g383
ssS'my_photo-1685.jpg'
p1608
(dp1609
I40085
g4
ssS'my_photo-1000.jpg'
p1610
(dp1611
I34068
g38
sI37045
g39
ssS'my_photo-1520.jpg'
p1612
(dp1613
I41449
g84
sI38099
g83
ssS'my_photo-1495.jpg'
p1614
(dp1615
I37173
g49
sI32799
g39
ssS'my_photo-791.jpg'
p1616
(dp1617
I41105
g137
sI26950
g135
sI32461
g8
sI38454
g136
sI38311
g9
ssS'my_photo-1780.jpg'
p1618
(dp1619
I36109
g48
sI39486
g155
sI35991
g80
ssS'my_photo-2112.jpg'
p1620
(dp1621
I35282
g48
sI29534
g158
ssS'my_photo-2040.jpg'
p1622
(dp1623
I33928
g48
sI31137
g158
ssS'my_photo-971.jpg'
p1624
(dp1625
I31148
g28
sI32998
g25
ssS'my_photo-868.jpg'
p1626
(dp1627
I41692
g419
sI39125
g418
ssS'my_photo-883.jpg'
p1628
(dp1629
I32458
g129
ssS'my_photo-788.jpg'
p1630
(dp1631
I38407
g136
sI30732
g144
sI30767
g143
ssS'my_photo-1240.jpg'
p1632
(dp1633
I41008
g132
sI34610
g48
sI39006
g49
ssS'my_photo-1556.jpg'
p1634
(dp1635
I35441
g22
sI28751
g25
ssS'my_photo-1270.jpg'
p1636
(dp1637
I40091
g13
sI27710
g88
ssS'my_photo-1713.jpg'
p1638
(dp1639
I35074
g25
sI37238
g55
sI24334
g56
sI35679
g22
ssS'my_photo-892.jpg'
p1640
(dp1641
I33104
g28
sI27388
g25
ssS'my_photo-1307.jpg'
p1642
(dp1643
I36170
g17
sI39764
g258
ssS'my_photo-1586.jpg'
p1644
(dp1645
I39819
g70
sI32492
g71
ssS'my_photo-867.jpg'
p1646
(dp1647
I36145
g59
sI41226
g419
ssS'my_photo-1171.jpg'
p1648
(dp1649
I36218
g17
sI29763
g18
ssS'my_photo-911.jpg'
p1650
(dp1651
I35602
g532
sI32059
g137
ssS'my_photo-1792.jpg'
p1652
(dp1653
I38882
g120
ssS'my_photo-1887.jpg'
p1654
(dp1655
I32228
g13
ssS'my_photo-1504.jpg'
p1656
(dp1657
I37584
g193
sI31752
g159
ssS'my_photo-1978.jpg'
p1658
(dp1659
I37773
g39
sI29798
g49
sI38381
g132
ssS'my_photo-2054.jpg'
p1660
(dp1661
I34281
g120
sI40796
g566
ssS'my_photo-1273.jpg'
p1662
(dp1663
I37532
g28
sI29175
g13
ssS'my_photo-928.jpg'
p1664
(dp1665
I33825
g172
sI35020
g173
ssS'my_photo-1081.jpg'
p1666
(dp1667
I30433
g193
sI36740
g159
ssS'my_photo-1195.jpg'
p1668
(dp1669
I35970
g84
sI30988
g83
ssS'my_photo-1521.jpg'
p1670
(dp1671
I39616
g83
ssS'my_photo-1105.jpg'
p1672
(dp1673
I25650
g22
sI38980
g19
ssS'my_photo-1859.jpg'
p1674
(dp1675
I40441
g38
sI37475
g4
ssS'my_photo-1728.jpg'
p1676
(dp1677
I40037
g71
sI35573
g323
ssS'my_photo-2124.jpg'
p1678
(dp1679
I40645
g4
ssS'my_photo-1365.jpg'
p1680
(dp1681
I40664
g140
sI40926
g619
sI41799
g88
ssS'my_photo-1337.jpg'
p1682
(dp1683
I28684
g25
sI37678
g22
ssS'my_photo-986.jpg'
p1684
(dp1685
I39521
g193
sI35690
g184
ssS'my_photo-2064.jpg'
p1686
(dp1687
I41661
g70
sI29823
g71
ssS'my_photo-768.jpg'
p1688
(dp1689
I37722
g110
sI39045
g70
ssS'my_photo-1820.jpg'
p1690
(dp1691
I33299
g56
sI27015
g25
ssS'my_photo-1986.jpg'
p1692
(dp1693
I34515
g120
sI38861
g566
ssS'my_photo-1657.jpg'
p1694
(dp1695
I39440
g44
sI33136
g45
sI32893
g42
sI39377
g43
ssS'my_photo-819.jpg'
p1696
(dp1697
I39024
g13
sI26928
g14
sI41789
g88
ssS'my_photo-2031.jpg'
p1698
(dp1699
I34897
g115
sI31939
g184
ssS'my_photo-1850.jpg'
p1700
(dp1701
I34368
g80
sI35427
g48
sI41436
g155
ssS'my_photo-1371.jpg'
p1702
(dp1703
I39242
g13
sI31316
g28
ssS'my_photo-1687.jpg'
p1704
(dp1705
I39521
g383
ssS'my_photo-1313.jpg'
p1706
(dp1707
I32048
g169
sI40623
g168
ssS'my_photo-970.jpg'
p1708
(dp1709
I25790
g28
ssS'my_photo-1705.jpg'
p1710
(dp1711
I35116
g88
sI33670
g13
sI39983
g9
ssS'my_photo-1992.jpg'
p1712
(dp1713
I35117
g323
ssS'my_photo-1281.jpg'
p1714
(dp1715
I39088
g19
sI25925
g22
ssS'my_photo-807.jpg'
p1716
(dp1717
I32411
g71
sI40917
g70
ssS'my_photo-1456.jpg'
p1718
(dp1719
I33250
g25
sI31213
g28
ssS'my_photo-2231.jpg'
p1720
(dp1721
I39090
g17
sI27667
g18
sI37364
g19
ssS'my_photo-1113.jpg'
p1722
(dp1723
I35420
g184
sI31830
g115
ssS'my_photo-1501.jpg'
p1724
(dp1725
I29523
g158
ssS'my_photo-925.jpg'
p1726
(dp1727
I33640
g101
sI32198
g1073
ssS'my_photo-1512.jpg'
p1728
(dp1729
I40876
g292
sI37325
g168
sI35270
g92
ssS'my_photo-1642.jpg'
p1730
(dp1731
I29989
g13
sI32511
g28
ssS'my_photo-1546.jpg'
p1732
(dp1733
I37693
g277
sI33103
g276
ssS'my_photo-1203.jpg'
p1734
(dp1735
I37627
g336
sI39811
g206
ssS'my_photo-1141.jpg'
p1736
(dp1737
I35498
g84
sI32163
g83
sI39453
g85
ssS'my_photo-1965.jpg'
p1738
(dp1739
I29418
g115
sI39525
g17
ssS'my_photo-1003.jpg'
p1740
(dp1741
I39591
g4
ssS'my_photo-992.jpg'
p1742
(dp1743
I31955
g158
sI36574
g48
ssS'my_photo-1154.jpg'
p1744
(dp1745
I41825
g77
sI33746
g140
ssS'my_photo-1730.jpg'
p1746
(dp1747
I35688
g71
sI39747
g70
ssS'my_photo-1164.jpg'
p1748
(dp1749
I33632
g22
sI27517
g25
sI40743
g56
ssS'my_photo-1459.jpg'
p1750
(dp1751
I26226
g25
sI37075
g22
ssS'my_photo-1514.jpg'
p1752
(dp1753
I36945
g92
sI38948
g91
ssS'my_photo-1807.jpg'
p1754
(dp1755
I39347
g336
sI41891
g206
ssS'my_photo-1829.jpg'
p1756
(dp1757
I34361
g42
sI38778
g45
ssS'my_photo-761.jpg'
p1758
(dp1759
I42233
g59
ssS'my_photo-2215.jpg'
p1760
(dp1761
I41292
g14
sI32286
g52
sI40334
g129
ssS'my_photo-2165.jpg'
p1762
(dp1763
I35913
g19
sI39678
g17
sI28990
g18
ssS'my_photo-1948.jpg'
p1764
(dp1765
I41200
g88
sI36802
g13
sI24588
g14
ssS'my_photo-950.jpg'
p1766
(dp1767
I40985
g110
ssS'my_photo-1453.jpg'
p1768
(dp1769
I35432
g13
sI31940
g28
ssS'my_photo-1418.jpg'
p1770
(dp1771
I38617
g18
sI35557
g22
sI31926
g19
ssS'my_photo-1587.jpg'
p1772
(dp1773
I31751
g70
ssS'my_photo-1167.jpg'
p1774
(dp1775
I30027
g22
sI34772
g19
ssS'my_photo-2138.jpg'
p1776
(dp1777
I30913
g70
ssS'my_photo-2193.jpg'
p1778
(dp1779
I34424
g120
sI38858
g566
ssS'my_photo-1834.jpg'
p1780
(dp1781
I34360
g45
sI32759
g43
sI32703
g44
ssS'my_photo-1633.jpg'
p1782
(dp1783
I38694
g196
ssS'my_photo-1821.jpg'
p1784
(dp1785
I38299
g55
sI36503
g22
sI25021
g56
sI35269
g25
ssS'my_photo-769.jpg'
p1786
(dp1787
I34533
g110
ssS'my_photo-2049.jpg'
p1788
(dp1789
I39192
g4
sI35188
g38
sI40932
g39
ssS'my_photo-1596.jpg'
p1790
(dp1791
I31885
g129
ssS'my_photo-820.jpg'
p1792
(dp1793
I27405
g13
sI35158
g14
ssS'my_photo-1490.jpg'
p1794
(dp1795
I34894
g4
ssS'my_photo-1509.jpg'
p1796
(dp1797
I30768
g276
sI40135
g168
ssS'my_photo-1869.jpg'
p1798
(dp1799
I38168
g83
sI37865
g85
sI37343
g84
ssS'my_photo-2005.jpg'
p1800
(dp1801
I39937
g129
sI32372
g52
sI41613
g14
ssS'my_photo-2141.jpg'
p1802
(dp1803
I34273
g110
ssS'my_photo-1622.jpg'
p1804
(dp1805
I35338
g418
ssS'my_photo-1711.jpg'
p1806
(dp1807
I35309
g56
sI21894
g25
ssS'my_photo-1360.jpg'
p1808
(dp1809
I41355
g271
ssS'my_photo-940.jpg'
p1810
(dp1811
I37311
g418
ssS'my_photo-1571.jpg'
p1812
(dp1813
I38235
g18
sI31509
g17
ssS'my_photo-2068.jpg'
p1814
(dp1815
I33293
g110
sI39958
g70
ssS'my_photo-1853.jpg'
p1816
(dp1817
I30529
g49
sI36268
g132
sI40238
g39
ssS'my_photo-1411.jpg'
p1818
(dp1819
I33211
g25
sI31375
g28
ssS'my_photo-2065.jpg'
p1820
(dp1821
I33594
g70
sI39399
g71
ssS'my_photo-1763.jpg'
p1822
(dp1823
I39544
g44
sI33523
g45
sI37085
g42
ssS'my_photo-1747.jpg'
p1824
(dp1825
I33571
g28
sI35003
g13
ssS'my_photo-1434.jpg'
p1826
(dp1827
I29122
g168
ssS'my_photo-835.jpg'
p1828
(dp1829
I28348
g144
sI34518
g143
sI36726
g62
ssS'my_photo-2213.jpg'
p1830
(dp1831
I38633
g129
ssS'my_photo-1645.jpg'
p1832
(dp1833
I26371
g25
sI30703
g28
ssS'my_photo-1811.jpg'
p1834
(dp1835
I38610
g140
ssS'my_photo-2070.jpg'
p1836
(dp1837
I39640
g250
sI41025
g110
ssS'my_photo-2177.jpg'
p1838
(dp1839
I34015
g159
sI38862
g158
sI31439
g193
ssS'my_photo-1674.jpg'
p1840
(dp1841
I33656
g155
sI39985
g9
sI37226
g80
sI35596
g48
ssS'my_photo-1020.jpg'
p1842
(dp1843
I38248
g76
sI40362
g336
ssS'my_photo-1325.jpg'
p1844
(dp1845
I41847
g76
ssS'my_photo-1755.jpg'
p1846
(dp1847
I39772
g56
sI29862
g55
ssS'my_photo-1818.jpg'
p1848
(dp1849
I30634
g25
sI32450
g28
ssS'my_photo-2166.jpg'
p1850
(dp1851
I29848
g18
sI36221
g17
ssS'my_photo-1328.jpg'
p1852
(dp1853
I39158
g88
sI37175
g619
ssS'my_photo-763.jpg'
p1854
(dp1855
I41296
g323
sI41492
g418
ssS'my_photo-1627.jpg'
p1856
(dp1857
I32015
g70
ssS'my_photo-1458.jpg'
p1858
(dp1859
I27123
g25
ssS'my_photo-945.jpg'
p1860
(dp1861
I33990
g71
sI39599
g70
ssS'my_photo-895.jpg'
p1862
(dp1863
I23640
g56
sI36249
g55
sI35500
g22
sI35564
g25
ssS'my_photo-1108.jpg'
p1864
(dp1865
I39942
g17
sI29950
g18
sI34773
g19
ssS'my_photo-1779.jpg'
p1866
(dp1867
I35745
g155
sI39773
g80
ssS'my_photo-1702.jpg'
p1868
(dp1869
I39946
g9
sI33515
g619
sI35530
g88
sI41723
g140
ssS'my_photo-1013.jpg'
p1870
(dp1871
I40270
g205
sI31982
g85
ssS'my_photo-2147.jpg'
p1872
(dp1873
I38471
g129
ssS'my_photo-1873.jpg'
p1874
(dp1875
I31119
g205
ssS'my_photo-1824.jpg'
p1876
(dp1877
I40461
g56
sI30534
g55
ssS'my_photo-1896.jpg'
p1878
(dp1879
I33185
g55
sI30186
g56
sI36940
g22
ssS'my_photo-1002.jpg'
p1880
(dp1881
I34558
g4
ssS'my_photo-1474.jpg'
p1882
(dp1883
I42788
g91
sI31775
g92
ssS'my_photo-2090.jpg'
p1884
(dp1885
I40188
g19
sI24910
g22
ssS'my_photo-813.jpg'
p1886
(dp1887
I37576
g250
ssS'my_photo-964.jpg'
p1888
(dp1889
I36899
g25
sI24957
g28
ssS'my_photo-1531.jpg'
p1890
(dp1891
I38049
g39
sI34903
g38
ssS'my_photo-1663.jpg'
p1892
(dp1893
I39539
g62
sI25757
g63
sI34078
g43
ssS'my_photo-1124.jpg'
p1894
(dp1895
I37914
g132
sI32811
g48
sI35511
g49
ssS'my_photo-969.jpg'
p1896
(dp1897
I29669
g28
sI39295
g13
ssS'my_photo-1372.jpg'
p1898
(dp1899
I26800
g28
ssS'my_photo-852.jpg'
p1900
(dp1901
I40622
g235
sI27423
g102
ssS'my_photo-1819.jpg'
p1902
(dp1903
I38177
g56
sI24849
g25
ssS'my_photo-2129.jpg'
p1904
(dp1905
I38619
g351
ssS'my_photo-2048.jpg'
p1906
(dp1907
I31688
g38
sI36854
g39
ssS'my_photo-1166.jpg'
p1908
(dp1909
I41354
g56
sI22979
g22
sI41726
g19
sI37734
g25
ssS'my_photo-1305.jpg'
p1910
(dp1911
I32085
g18
sI37766
g17
ssS'my_photo-1673.jpg'
p1912
(dp1913
I37706
g7
sI39915
g9
sI41638
g158
sI27719
g155
ssS'my_photo-1353.jpg'
p1914
(dp1915
I38424
g169
sI33369
g168
ssS'my_photo-903.jpg'
p1916
(dp1917
I30472
g62
sI34976
g144
sI40717
g143
ssS'my_photo-1293.jpg'
p1918
(dp1919
I31586
g13
ssS'my_photo-1040.jpg'
p1920
(dp1921
I36392
g19
sI32211
g18
ssS'my_photo-1444.jpg'
p1922
(dp1923
I39321
g76
ssS'my_photo-1707.jpg'
p1924
(dp1925
I36656
g28
sI28608
g13
ssS'my_photo-2047.jpg'
p1926
(dp1927
I39225
g38
sI41042
g49
sI29950
g39
ssS'my_photo-1227.jpg'
p1928
(dp1929
I36576
g115
sI35698
g18
sI37197
g17
ssS'my_photo-836.jpg'
p1930
(dp1931
I34429
g136
sI27782
g143
sI34735
g144
ssS'my_photo-1209.jpg'
p1932
(dp1933
I33010
g88
sI36260
g619
ssS'my_photo-1643.jpg'
p1934
(dp1935
I39961
g9
sI24155
g28
sI41884
g255
sI40635
g13
ssS'my_photo-1089.jpg'
p1936
(dp1937
I33833
g39
sI38690
g38
ssS'my_photo-1350.jpg'
p1938
(dp1939
I36344
g258
sI33898
g169
ssS'my_photo-825.jpg'
p1940
(dp1941
I36148
g22
sI25555
g56
sI31348
g25
sI40059
g55
ssS'my_photo-991.jpg'
p1942
(dp1943
I32024
g158
sI38691
g159
ssS'my_photo-793.jpg'
p1944
(dp1945
I36450
g532
sI31412
g137
ssS'my_photo-1658.jpg'
p1946
(dp1947
I28969
g45
sI37126
g43
sI35750
g44
sI36342
g42
ssS'my_photo-1662.jpg'
p1948
(dp1949
I39898
g44
sI37083
g62
sI28940
g63
sI30583
g43
ssS'my_photo-1798.jpg'
p1950
(dp1951
I38268
g84
sI36236
g85
sI40950
g83
ssS'my_photo-1830.jpg'
p1952
(dp1953
I33809
g42
sI37757
g45
ssS'my_photo-778.jpg'
p1954
(dp1955
I33740
g25
sI27583
g28
ssS'my_photo-1472.jpg'
p1956
(dp1957
I29207
g168
ssS'my_photo-984.jpg'
p1958
(dp1959
I38478
g115
sI31575
g184
ssS'my_photo-2131.jpg'
p1960
(dp1961
I38993
g419
ssS'my_photo-1211.jpg'
p1962
(dp1963
I36122
g88
sI34019
g13
ssS'my_photo-1922.jpg'
p1964
(dp1965
I38280
g132
sI36490
g80
sI35363
g48
sI39076
g49
ssS'my_photo-1097.jpg'
p1966
(dp1967
I38582
g83
ssS'my_photo-2199.jpg'
p1968
(dp1969
I35003
g323
ssS'my_photo-2110.jpg'
p1970
(dp1971
I34300
g158
sI36589
g193
sI34830
g159
ssS'my_photo-2093.jpg'
p1972
(dp1973
I33437
g19
sI31502
g18
ssS'my_photo-2132.jpg'
p1974
(dp1975
I38651
g418
ssS'my_photo-781.jpg'
p1976
(dp1977
I35994
g22
sI32491
g55
sI27765
g56
sI37990
g25
ssS'my_photo-2203.jpg'
p1978
(dp1979
I36616
g71
sI35561
g70
ssS'my_photo-872.jpg'
p1980
(dp1981
I36217
g71
sI38514
g323
ssS'my_photo-1872.jpg'
p1982
(dp1983
I32348
g205
sI39165
g85
ssS'my_photo-762.jpg'
p1984
(dp1985
I40832
g59
sI38676
g419
ssS'my_photo-1468.jpg'
p1986
(dp1987
I37351
g17
sI31695
g18
ssS'my_photo-1933.jpg'
p1988
(dp1989
I39345
g71
sI33279
g323
ssS'my_photo-1816.jpg'
p1990
(dp1991
I31860
g28
sI37709
g13
ssS'my_photo-1454.jpg'
p1992
(dp1993
I28648
g28
sI39580
g13
ssS'my_photo-1489.jpg'
p1994
(dp1995
I40277
g4
ssS'my_photo-853.jpg'
p1996
(dp1997
I33811
g102
sI39956
g101
ssS'my_photo-936.jpg'
p1998
(dp1999
I36569
g360
ssS'my_photo-2108.jpg'
p2000
(dp2001
I38122
g159
sI26075
g193
ssS'my_photo-2027.jpg'
p2002
(dp2003
I35545
g17
sI35450
g115
sI33111
g18
ssS'my_photo-1027.jpg'
p2004
(dp2005
I30416
g13
ssS'my_photo-1778.jpg'
p2006
(dp2007
I39408
g7
sI30998
g155
ssS'my_photo-1231.jpg'
p2008
(dp2009
I39880
g193
sI37212
g184
ssS'my_photo-1197.jpg'
p2010
(dp2011
I40151
g84
sI31583
g85
ssS'my_photo-2221.jpg'
p2012
(dp2013
I24069
g28
ssS'my_photo-1554.jpg'
p2014
(dp2015
I33946
g28
sI29813
g25
ssS'my_photo-1646.jpg'
p2016
(dp2017
I37593
g22
sI20923
g25
sI34253
g56
ssS'my_photo-828.jpg'
p2018
(dp2019
I33853
g55
ssS'my_photo-2157.jpg'
p2020
(dp2021
I32555
g28
sI28260
g25
ssS'my_photo-752.jpg'
p2022
(dp2023
I29463
g102
ssS'my_photo-1609.jpg'
p2024
(dp2025
I36448
g22
sI33388
g25
sI39348
g55
sI26261
g56
ssS'my_photo-1288.jpg'
p2026
(dp2027
I36641
g140
ssS'my_photo-1503.jpg'
p2028
(dp2029
I33419
g159
sI38004
g193
sI39301
g158
ssS'my_photo-927.jpg'
p2030
(dp2031
I42304
g1073
sI34728
g173
sI42265
g172
ssS'my_photo-1264.jpg'
p2032
(dp2033
I40411
g336
sI37653
g206
ssS'my_photo-1426.jpg'
p2034
(dp2035
I32734
g17
ssS'my_photo-1389.jpg'
p2036
(dp2037
I40182
g258
sI31439
g169
ssS'my_photo-1028.jpg'
p2038
(dp2039
I31255
g13
ssS'my_photo-1107.jpg'
p2040
(dp2041
I33781
g18
sI31013
g19
ssS'my_photo-2097.jpg'
p2042
(dp2043
I30304
g18
sI38353
g115
sI36021
g17
ssS'my_photo-1706.jpg'
p2044
(dp2045
I30779
g13
sI38324
g88
ssS'my_photo-1253.jpg'
p2046
(dp2047
I35472
g105
ssS'my_photo-1813.jpg'
p2048
(dp2049
I41794
g13
sI30371
g88
ssS'my_photo-1204.jpg'
p2050
(dp2051
I38226
g336
sI38402
g76
ssS'my_photo-1506.jpg'
p2052
(dp2053
I32865
g277
sI39085
g276
ssS'my_photo-1425.jpg'
p2054
(dp2055
I32729
g17
sI36183
g18
ssS'my_photo-1136.jpg'
p2056
(dp2057
I38384
g383
ssS'my_photo-1912.jpg'
p2058
(dp2059
I36323
g63
ssS'my_photo-1380.jpg'
p2060
(dp2061
I34474
g19
sI35284
g22
ssS'my_photo-1022.jpg'
p2062
(dp2063
I37435
g77
sI41413
g140
ssS'my_photo-1709.jpg'
p2064
(dp2065
I36841
g25
sI39986
g9
sI22578
g28
ssS'my_photo-2202.jpg'
p2066
(dp2067
I31144
g71
sI39411
g70
ssS'my_photo-1631.jpg'
p2068
(dp2069
I36825
g250
ssS'my_photo-1990.jpg'
p2070
(dp2071
I38811
g419
ssS'my_photo-1169.jpg'
p2072
(dp2073
I32760
g18
sI32195
g19
ssS'my_photo-1695.jpg'
p2074
(dp2075
I30486
g205
ssS'my_photo-1953.jpg'
p2076
(dp2077
I23776
g28
ssS'my_photo-1710.jpg'
p2078
(dp2079
I41954
g255
sI30579
g28
sI26596
g25
ssS'my_photo-2209.jpg'
p2080
(dp2081
I36456
g250
ssS'my_photo-1185.jpg'
p2082
(dp2083
I32474
g4
ssS'my_photo-2000.jpg'
p2084
(dp2085
I36742
g250
ssS'my_photo-2098.jpg'
p2086
(dp2087
I36314
g115
sI32133
g18
sI35850
g17
ssS'my_photo-1845.jpg'
p2088
(dp2089
I33113
g9
sI28892
g7
ssS'my_photo-1573.jpg'
p2090
(dp2091
I38138
g18
sI31516
g17
ssS'my_photo-1138.jpg'
p2092
(dp2093
I38239
g105
ssS'my_photo-1148.jpg'
p2094
(dp2095
I33448
g206
ssS'my_photo-1997.jpg'
p2096
(dp2097
I30613
g70
ssS'my_photo-1326.jpg'
p2098
(dp2099
I38501
g77
ssS'my_photo-1727.jpg'
p2100
(dp2101
I35120
g323
ssS'my_photo-1668.jpg'
p2102
(dp2103
I41641
g193
sI27042
g10
sI35932
g8
sI36237
g9
sI36766
g7
ssS'my_photo-1908.jpg'
p2104
(dp2105
I40878
g63
sI38996
g62
sI33909
g44
sI38518
g45
sI29303
g43
ssS'my_photo-805.jpg'
p2106
(dp2107
I40563
g360
ssS'my_photo-1614.jpg'
p2108
(dp2109
I35428
g42
sI36343
g45
ssS'my_photo-1232.jpg'
p2110
(dp2111
I35865
g193
sI40911
g184
ssS'my_photo-1930.jpg'
p2112
(dp2113
I36972
g418
ssS'my_photo-1060.jpg'
p2114
(dp2115
I36002
g49
sI34125
g39
ssS'my_photo-1143.jpg'
p2116
(dp2117
I29617
g85
sI41482
g205
ssS'my_photo-2092.jpg'
p2118
(dp2119
I35129
g22
sI29876
g19
sI37238
g18
ssS'my_photo-931.jpg'
p2120
(dp2121
I34876
g557
ssS'my_photo-2156.jpg'
p2122
(dp2123
I23816
g28
sI36574
g25
ssS'my_photo-1927.jpg'
p2124
(dp2125
I44740
g360
sI38934
g59
ssS'my_photo-939.jpg'
p2126
(dp2127
I38485
g418
ssS'my_photo-1684.jpg'
p2128
(dp2129
I37454
g4
ssS'my_photo-1005.jpg'
p2130
(dp2131
I38324
g120
ssS'my_photo-1318.jpg'
p2132
(dp2133
I38947
g292
sI41631
g31
ssS'my_photo-2015.jpg'
p2134
(dp2135
I25698
g25
sI36334
g28
ssS'my_photo-1381.jpg'
p2136
(dp2137
I35657
g18
sI34490
g19
ssS'my_photo-1548.jpg'
p2138
(dp2139
I37456
g276
sI32746
g168
sI39775
g169
ssS'my_photo-1555.jpg'
p2140
(dp2141
I26888
g25
ssS'my_photo-1788.jpg'
p2142
(dp2143
I34987
g38
sI40278
g39
ssS'my_photo-1972.jpg'
p2144
(dp2145
I34986
g159
sI27589
g193
ssS'my_photo-745.jpg'
p2146
(dp2147
I28249
g267
sI41138
g532
sI39758
g255
ssS'my_photo-908.jpg'
p2148
(dp2149
I38224
g9
sI26996
g135
sI33332
g8
sI39197
g136
sI40313
g137
ssS'my_photo-1757.jpg'
p2150
(dp2151
I39971
g42
sI36531
g55
ssS'my_photo-1985.jpg'
p2152
(dp2153
I42504
g566
sI39647
g120
ssS'my_photo-967.jpg'
p2154
(dp2155
I24245
g25
sI35086
g56
ssS'my_photo-1359.jpg'
p2156
(dp2157
I42178
g31
ssS'my_photo-1083.jpg'
p2158
(dp2159
I29562
g158
ssS'my_photo-1462.jpg'
p2160
(dp2161
I28768
g22
sI37945
g19
ssS'my_photo-1196.jpg'
p2162
(dp2163
I34672
g85
sI35882
g84
sI38397
g83
ssS'my_photo-1073.jpg'
p2164
(dp2165
I39744
g17
sI29092
g18
sI37598
g19
ssS'my_photo-1809.jpg'
p2166
(dp2167
I41992
g76
ssS'my_photo-843.jpg'
p2168
(dp2169
I38266
g267
sI39165
g137
sI29047
g532
ssS'my_photo-1722.jpg'
p2170
(dp2171
I27874
g63
sI37074
g62
sI41570
g44
sI35054
g43
sI41973
g255
ssS'my_photo-1114.jpg'
p2172
(dp2173
I27578
g184
sI38615
g115
ssS'my_photo-1029.jpg'
p2174
(dp2175
I31264
g28
sI37935
g13
ssS'my_photo-1594.jpg'
p2176
(dp2177
I39151
g196
ssS'my_photo-977.jpg'
p2178
(dp2179
I35848
g19
sI32671
g22
ssS'my_photo-1795.jpg'
p2180
(dp2181
I39320
g105
ssS'my_photo-1427.jpg'
p2182
(dp2183
I34664
g17
sI39841
g258
ssS'my_photo-1781.jpg'
p2184
(dp2185
I41217
g49
sI33412
g80
sI34683
g48
sI40100
g132
ssS'my_photo-1170.jpg'
p2186
(dp2187
I27753
g18
sI37291
g17
sI39921
g19
ssS'my_photo-1991.jpg'
p2188
(dp2189
I38600
g418
ssS'my_photo-2189.jpg'
p2190
(dp2191
I33041
g4
ssS'my_photo-1565.jpg'
p2192
(dp2193
I32112
g18
sI34838
g17
ssS'my_photo-826.jpg'
p2194
(dp2195
I37955
g25
sI32484
g55
sI36038
g22
sI27711
g56
ssS'my_photo-1236.jpg'
p2196
(dp2197
I30311
g158
ssS'my_photo-1812.jpg'
p2198
(dp2199
I39151
g619
sI34567
g88
ssS'my_photo-913.jpg'
p2200
(dp2201
I35000
g532
sI30157
g267
ssS'my_photo-2184.jpg'
p2202
(dp2203
I31747
g49
sI37001
g132
sI40275
g39
sI37109
g48
ssS'my_photo-2012.jpg'
p2204
(dp2205
I24353
g28
sI41782
g13
ssS'my_photo-1593.jpg'
p2206
(dp2207
I41908
g250
sI39902
g9
ssS'my_photo-2051.jpg'
p2208
(dp2209
I35551
g4
ssS'my_photo-1732.jpg'
p2210
(dp2211
I37444
g70
sI41109
g110
ssS'my_photo-2033.jpg'
p2212
(dp2213
I35459
g184
sI36796
g193
ssS'my_photo-1428.jpg'
p2214
(dp2215
I38322
g17
sI34397
g258
ssS'my_photo-1401.jpg'
p2216
(dp2217
I38227
g77
ssS'my_photo-822.jpg'
p2218
(dp2219
I25863
g28
ssS'my_photo-2200.jpg'
p2220
(dp2221
I31659
g323
sI40086
g71
ssS'my_photo-1613.jpg'
p2222
(dp2223
I38656
g55
sI38578
g42
ssS'my_photo-1771.jpg'
p2224
(dp2225
I36295
g10
ssS'my_photo-1874.jpg'
p2226
(dp2227
I37908
g205
ssS'my_photo-1457.jpg'
p2228
(dp2229
I29194
g25
sI34763
g28
ssS'my_photo-2099.jpg'
p2230
(dp2231
I35612
g17
sI33084
g18
sI35438
g115
ssS'my_photo-1074.jpg'
p2232
(dp2233
I30236
g18
sI37598
g17
ssS'my_photo-2230.jpg'
p2234
(dp2235
I39930
g17
sI30003
g18
sI34922
g19
ssS'my_photo-1804.jpg'
p2236
(dp2237
I37546
g206
ssS'my_photo-1446.jpg'
p2238
(dp2239
I38137
g140
sI40006
g77
ssS'my_photo-1750.jpg'
p2240
(dp2241
I31147
g28
sI31991
g25
ssS'my_photo-1436.jpg'
p2242
(dp2243
I40385
g168
sI40982
g92
sI35214
g292
ssS'my_photo-1239.jpg'
p2244
(dp2245
I28385
g48
ssS'my_photo-1669.jpg'
p2246
(dp2247
I32849
g9
sI30298
g10
sI33467
g7
sI35236
g8
sI41423
g193
ssS'my_photo-2075.jpg'
p2248
(dp2249
I34622
g129
ssS'my_photo-1589.jpg'
p2250
(dp2251
I38288
g70
sI36131
g110
ssS'my_photo-773.jpg'
p2252
(dp2253
I40560
g129
sI33963
g52
ssS'my_photo-947.jpg'
p2254
(dp2255
I36392
g70
sI41013
g110
ssS'my_photo-758.jpg'
p2256
(dp2257
I37558
g557
ssS'my_photo-886.jpg'
p2258
(dp2259
I41668
g88
sI38172
g13
sI25985
g14
ssS'my_photo-1289.jpg'
p2260
(dp2261
I36617
g619
sI38514
g88
ssS'my_photo-1909.jpg'
p2262
(dp2263
I40953
g44
sI33370
g63
sI38885
g62
sI32302
g43
ssS'my_photo-2016.jpg'
p2264
(dp2265
I34209
g22
sI40699
g56
sI27007
g25
ssS'my_photo-2154.jpg'
p2266
(dp2267
I32520
g28
sI31631
g13
ssS'my_photo-1233.jpg'
p2268
(dp2269
I39780
g159
sI29222
g193
ssS'my_photo-1278.jpg'
p2270
(dp2271
I37544
g22
sI23244
g25
ssS'my_photo-1666.jpg'
p2272
(dp2273
I39824
g9
sI39378
g8
sI33395
g10
sI40970
g143
sI41206
g184
ssS'my_photo-1327.jpg'
p2274
(dp2275
I38402
g140
ssS'my_photo-1435.jpg'
p2276
(dp2277
I35673
g292
sI37346
g168
sI41059
g92
ssS'my_photo-842.jpg'
p2278
(dp2279
I34944
g137
sI32555
g532
ssS'my_photo-1832.jpg'
p2280
(dp2281
I32257
g45
sI38356
g42
sI38468
g44
ssS'my_photo-1881.jpg'
p2282
(dp2283
I40164
g140
sI38452
g77
ssS'my_photo-2164.jpg'
p2284
(dp2285
I32415
g19
sI32879
g18
ssS'my_photo-1957.jpg'
p2286
(dp2287
I27297
g25
sI40475
g56
sI33676
g22
ssS'my_photo-1493.jpg'
p2288
(dp2289
I33388
g39
sI39797
g38
ssS'my_photo-849.jpg'
p2290
(dp2291
I41435
g255
sI28270
g235
ssS'my_photo-1336.jpg'
p2292
(dp2293
I33024
g25
sI32921
g28
ssS'my_photo-2178.jpg'
p2294
(dp2295
I40960
g193
sI36783
g159
sI30759
g158
ssS'my_photo-897.jpg'
p2296
(dp2297
I37859
g55
sI38359
g42
ssS'my_photo-783.jpg'
p2298
(dp2299
I38945
g42
sI37066
g55
ssS'my_photo-2222.jpg'
p2300
(dp2301
I36745
g25
sI23701
g28
ssS'my_photo-1482.jpg'
p2302
(dp2303
I39040
g83
ssS'my_photo-1271.jpg'
p2304
(dp2305
I37242
g13
sI32652
g88
ssS'my_photo-1370.jpg'
p2306
(dp2307
I34981
g28
sI35630
g13
ssS'my_photo-1729.jpg'
p2308
(dp2309
I32587
g71
ssS'my_photo-966.jpg'
p2310
(dp2311
I26755
g25
sI33924
g28
ssS'my_photo-2052.jpg'
p2312
(dp2313
I39229
g4
ssS'my_photo-1051.jpg'
p2314
(dp2315
I35460
g159
sI31876
g193
sI41238
g158
ssS'my_photo-1683.jpg'
p2316
(dp2317
I32049
g4
sI40302
g38
sI41990
g255
ssS'my_photo-1911.jpg'
p2318
(dp2319
I32712
g63
ssS'my_photo-894.jpg'
p2320
(dp2321
I24657
g56
sI35998
g22
sI32038
g25
sI39265
g55
ssS'my_photo-776.jpg'
p2322
(dp2323
I27188
g13
ssS'my_photo-1527.jpg'
p2324
(dp2325
I41727
g4
ssS'my_photo-1254.jpg'
p2326
(dp2327
I41106
g83
sI39124
g105
ssS'my_photo-2214.jpg'
p2328
(dp2329
I35556
g129
sI38709
g52
ssS'my_photo-1975.jpg'
p2330
(dp2331
I32449
g48
sI32997
g158
ssS'my_photo-1025.jpg'
p2332
(dp2333
I30046
g88
sI41231
g13
ssS'my_photo-1599.jpg'
p2334
(dp2335
I41984
g13
sI32032
g14
ssS'my_photo-2073.jpg'
p2336
(dp2337
I38967
g196
ssS'my_photo-955.jpg'
p2338
(dp2339
I32578
g129
ssS'my_photo-818.jpg'
p2340
(dp2341
I38414
g14
sI37862
g52
ssS'my_photo-998.jpg'
p2342
(dp2343
I30697
g39
sI40458
g49
sI41395
g38
ssS'my_photo-1312.jpg'
p2344
(dp2345
I31672
g169
sI37556
g258
ssS'my_photo-1826.jpg'
p2346
(dp2347
I36304
g55
sI40101
g42
ssS'my_photo-1671.jpg'
p2348
(dp2349
I40624
g155
sI26929
g7
sI39140
g8
sI31558
g9
ssS'my_photo-1280.jpg'
p2350
(dp2351
I22496
g22
sI41115
g56
sI37075
g25
ssS'my_photo-1535.jpg'
p2352
(dp2353
I37846
g132
sI34071
g49
ssS'my_photo-827.jpg'
p2354
(dp2355
I33705
g56
sI27406
g55
ssS'my_photo-993.jpg'
p2356
(dp2357
I30996
g48
sI38838
g158
ssS'my_photo-2008.jpg'
p2358
(dp2359
I28634
g14
sI41575
g88
sI31671
g13
ssS'my_photo-1345.jpg'
p2360
(dp2361
I35564
g17
sI33869
g18
ssS'my_photo-1238.jpg'
p2362
(dp2363
I40300
g158
sI31245
g48
ssS'my_photo-1213.jpg'
p2364
(dp2365
I31437
g13
sI34398
g28
ssS'my_photo-2140.jpg'
p2366
(dp2367
I31249
g110
ssS'my_photo-1416.jpg'
p2368
(dp2369
I25909
g22
ssS'my_photo-1519.jpg'
p2370
(dp2371
I39048
g84
sI38350
g83
ssS'my_photo-1562.jpg'
p2372
(dp2373
I36243
g19
sI31327
g18
ssS'my_photo-2095.jpg'
p2374
(dp2375
I38588
g19
sI27306
g18
sI38124
g17
ssS'my_photo-1035.jpg'
p2376
(dp2377
I41987
g56
sI25220
g22
ssS'my_photo-888.jpg'
p2378
(dp2379
I28209
g13
sI37772
g28
ssS'my_photo-784.jpg'
p2380
(dp2381
I36659
g45
sI33419
g42
ssS'my_photo-1135.jpg'
p2382
(dp2383
I39162
g120
ssS'my_photo-1128.jpg'
p2384
(dp2385
I38704
g38
sI30049
g39
sI41327
g49
ssS'my_photo-1924.jpg'
p2386
(dp2387
I32594
g49
sI33356
g132
ssS'my_photo-1851.jpg'
p2388
(dp2389
I35625
g80
sI35082
g48
sI38843
g132
sI39805
g49
ssS'my_photo-1692.jpg'
p2390
(dp2391
I32912
g83
sI37130
g84
ssS'my_photo-1214.jpg'
p2392
(dp2393
I35269
g13
sI30078
g28
ssS'my_photo-1970.jpg'
p2394
(dp2395
I37132
g184
sI34759
g193
ssS'my_photo-1502.jpg'
p2396
(dp2397
I36185
g159
sI40277
g193
sI35711
g158
ssS'my_photo-1920.jpg'
p2398
(dp2399
I40759
g80
sI34727
g155
ssS'my_photo-1115.jpg'
p2400
(dp2401
I31896
g184
sI40279
g193
ssS'my_photo-1095.jpg'
p2402
(dp2403
I41023
g383
ssS'my_photo-946.jpg'
p2404
(dp2405
I31452
g70
ssS'my_photo-1036.jpg'
p2406
(dp2407
I40386
g19
sI27983
g22
ssS'my_photo-840.jpg'
p2408
(dp2409
I33804
g135
sI39133
g9
sI32141
g137
ssS'my_photo-1391.jpg'
p2410
(dp2411
I41985
g292
sI29650
g168
ssS'my_photo-1111.jpg'
p2412
(dp2413
I38937
g18
sI38734
g17
sI30679
g115
ssS'my_photo-1659.jpg'
p2414
(dp2415
I35044
g43
sI27252
g45
sI38246
g42
sI34078
g44
ssS'my_photo-871.jpg'
p2416
(dp2417
I31179
g323
ssS'my_photo-1712.jpg'
p2418
(dp2419
I36057
g22
sI26234
g56
sI39684
g55
sI31567
g25
ssS'my_photo-1505.jpg'
p2420
(dp2421
I41386
g193
sI36579
g159
sI39188
g277
ssS'my_photo-870.jpg'
p2422
(dp2423
I35846
g323
ssS'my_photo-1342.jpg'
p2424
(dp2425
I33242
g19
sI37006
g18
ssS'my_photo-2085.jpg'
p2426
(dp2427
I25205
g28
sI34318
g25
ssS'my_photo-1698.jpg'
p2428
(dp2429
I36588
g206
sI40502
g336
ssS'my_photo-1900.jpg'
p2430
(dp2431
I38985
g42
sI37611
g55
ssS'my_photo-1616.jpg'
p2432
(dp2433
I32952
g44
sI33363
g43
sI33571
g45
ssS'my_photo-1783.jpg'
p2434
(dp2435
I31524
g49
sI41700
g39
sI34271
g132
ssS'my_photo-1678.jpg'
p2436
(dp2437
I32308
g132
sI28131
g49
sI37284
g48
sI39295
g39
ssS'my_photo-1224.jpg'
p2438
(dp2439
I31120
g18
sI33672
g19
ssS'my_photo-1461.jpg'
p2440
(dp2441
I24065
g22
sI41931
g56
sI41046
g19
ssS'my_photo-1567.jpg'
p2442
(dp2443
I38571
g115
sI34739
g18
sI31485
g17
ssS'my_photo-2025.jpg'
p2444
(dp2445
I28442
g18
sI36500
g17
ssS'my_photo-1311.jpg'
p2446
(dp2447
I35916
g169
sI34797
g258
ssS'my_photo-2086.jpg'
p2448
(dp2449
I26922
g25
sI34507
g28
ssS'my_photo-1697.jpg'
p2450
(dp2451
I31283
g206
sI39998
g9
ssS'my_photo-1581.jpg'
p2452
(dp2453
I36712
g418
ssS'my_photo-1385.jpg'
p2454
(dp2455
I34482
g17
ssS'my_photo-1835.jpg'
p2456
(dp2457
I29890
g43
sI37698
g45
sI39109
g62
sI33406
g44
ssS'my_photo-2223.jpg'
p2458
(dp2459
I31848
g25
sI27678
g28
ssS'my_photo-938.jpg'
p2460
(dp2461
I36896
g59
sI40498
g419
ssS'my_photo-812.jpg'
p2462
(dp2463
I38568
g250
ssS'my_photo-1121.jpg'
p2464
(dp2465
I33444
g48
sI31374
g158
ssS'my_photo-1090.jpg'
p2466
(dp2467
I35073
g38
sI40458
g39
ssS'my_photo-1475.jpg'
p2468
(dp2469
I35404
g92
sI39958
g91
ssS'my_photo-879.jpg'
p2470
(dp2471
I38224
g250
ssS'my_photo-1212.jpg'
p2472
(dp2473
I40810
g88
sI29582
g13
ssS'my_photo-1607.jpg'
p2474
(dp2475
I40394
g56
sI25706
g25
ssS'my_photo-1670.jpg'
p2476
(dp2477
I36896
g8
sI26043
g7
sI29892
g9
sI41959
g255
sI37130
g10
sI41883
g193
ssS'my_photo-1987.jpg'
p2478
(dp2479
I39733
g351
ssS'my_photo-1888.jpg'
p2480
(dp2481
I33986
g28
sI35436
g13
ssS'my_photo-1638.jpg'
p2482
(dp2483
I31210
g14
sI41579
g13
ssS'my_photo-2113.jpg'
p2484
(dp2485
I32011
g48
sI33527
g158
ssS'my_photo-862.jpg'
p2486
(dp2487
I43136
g952
sI42935
g557
ssS'my_photo-1656.jpg'
p2488
(dp2489
I31441
g42
sI34451
g45
sI40468
g44
ssS'my_photo-1719.jpg'
p2490
(dp2491
I40755
g63
sI37857
g62
sI28835
g43
sI33525
g45
sI29543
g44
ssS'my_photo-1944.jpg'
p2492
(dp2493
I37970
g129
ssS'my_photo-2063.jpg'
p2494
(dp2495
I39488
g323
sI32727
g71
ssS'my_photo-914.jpg'
p2496
(dp2497
I38801
g532
sI27309
g267
ssS'my_photo-798.jpg'
p2498
(dp2499
I31861
g255
sI35119
g267
ssS'my_photo-1867.jpg'
p2500
(dp2501
I33816
g83
sI38571
g84
ssS'my_photo-1208.jpg'
p2502
(dp2503
I41024
g140
sI37251
g88
sI34935
g619
ssS'my_photo-2020.jpg'
p2504
(dp2505
I35288
g19
sI29814
g22
ssS'my_photo-854.jpg'
p2506
(dp2507
I38624
g1073
sI29779
g101
ssS'my_photo-1234.jpg'
p2508
(dp2509
I31888
g193
sI37021
g159
ssS'my_photo-1034.jpg'
p2510
(dp2511
I40801
g56
sI32250
g25
sI33151
g22
ssS'my_photo-2186.jpg'
p2512
(dp2513
I35680
g49
sI29833
g39
ssS'my_photo-1626.jpg'
p2514
(dp2515
I36609
g70
sI37740
g71
ssS'my_photo-1897.jpg'
p2516
(dp2517
I38890
g56
sI28618
g55
ssS'my_photo-1868.jpg'
p2518
(dp2519
I33992
g83
sI40923
g85
sI37395
g84
ssS'my_photo-924.jpg'
p2520
(dp2521
I38113
g102
sI42597
g1073
sI33957
g101
ssS'my_photo-2006.jpg'
p2522
(dp2523
I36667
g14
sI37198
g52
ssS'my_photo-1315.jpg'
p2524
(dp2525
I29982
g168
ssS'my_photo-1971.jpg'
p2526
(dp2527
I41416
g184
sI40284
g159
sI30414
g193
ssS'my_photo-834.jpg'
p2528
(dp2529
I29438
g62
sI35631
g144
ssS'my_photo-2123.jpg'
p2530
(dp2531
I33331
g4
ssS'my_photo-1518.jpg'
p2532
(dp2533
I32500
g84
ssS'my_photo-1180.jpg'
p2534
(dp2535
I38956
g159
sI26269
g193
ssS'my_photo-1016.jpg'
p2536
(dp2537
I36567
g205
ssS'my_photo-2041.jpg'
p2538
(dp2539
I38688
g158
sI27406
g48
ssS'my_photo-2002.jpg'
p2540
(dp2541
I41675
g196
ssS'my_photo-1109.jpg'
p2542
(dp2543
I29089
g18
sI36493
g17
ssS'my_photo-1925.jpg'
p2544
(dp2545
I37232
g39
sI40665
g132
sI33691
g49
ssS'my_photo-2128.jpg'
p2546
(dp2547
I39542
g351
ssS'my_photo-2170.jpg'
p2548
(dp2549
I37945
g184
sI29829
g115
ssS'my_photo-1071.jpg'
p2550
(dp2551
I41744
g105
sI41119
g83
ssS'my_photo-1580.jpg'
p2552
(dp2553
I38905
g419
sI41245
g59
ssS'my_photo-1026.jpg'
p2554
(dp2555
I39081
g88
sI34995
g13
ssS'my_photo-1806.jpg'
p2556
(dp2557
I38496
g206
ssS'my_photo-1928.jpg'
p2558
(dp2559
I40163
g419
sI36220
g59
ssS'my_photo-2133.jpg'
p2560
(dp2561
I41321
g418
sI39446
g323
ssS'my_photo-990.jpg'
p2562
(dp2563
I35674
g158
sI36557
g159
sI38198
g193
ssS'my_photo-2084.jpg'
p2564
(dp2565
I22638
g28
ssS'my_photo-2107.jpg'
p2566
(dp2567
I37964
g184
sI34053
g193
ssS'my_photo-1949.jpg'
p2568
(dp2569
I35354
g14
sI25142
g13
ssS'my_photo-1246.jpg'
p2570
(dp2571
I40474
g38
sI39043
g4
ssS'my_photo-1675.jpg'
p2572
(dp2573
I41988
g255
sI32554
g48
sI41668
g155
sI29226
g80
sI40951
g132
ssS'my_photo-1007.jpg'
p2574
(dp2575
I41166
g105
ssS'my_photo-1419.jpg'
p2576
(dp2577
I32865
g18
sI33588
g19
ssS'my_photo-1043.jpg'
p2578
(dp2579
I32788
g115
ssS'my_photo-1194.jpg'
p2580
(dp2581
I38459
g83
ssS'my_photo-1566.jpg'
p2582
(dp2583
I32974
g18
sI38702
g115
sI33589
g17
ssS'my_photo-802.jpg'
p2584
(dp2585
I39685
g557
sI42493
g172
ssS'my_photo-747.jpg'
p2586
(dp2587
I38953
g267
sI28412
g255
ssS'my_photo-1786.jpg'
p2588
(dp2589
I30480
g39
sI41977
g38
sI40271
g49
ssS'my_photo-1344.jpg'
p2590
(dp2591
I40095
g19
sI30631
g18
ssS'my_photo-767.jpg'
p2592
(dp2593
I31370
g70
ssS'my_photo-1245.jpg'
p2594
(dp2595
I36748
g38
ssS'my_photo-1310.jpg'
p2596
(dp2597
I33552
g258
sI37338
g169
ssS'my_photo-1569.jpg'
p2598
(dp2599
I38824
g115
sI36578
g18
sI30843
g17
ssS'my_photo-1340.jpg'
p2600
(dp2601
I28150
g22
ssS'my_photo-1460.jpg'
p2602
(dp2603
I29288
g22
sI39553
g56
sI32370
g25
ssS'my_photo-1004.jpg'
p2604
(dp2605
I41526
g120
ssS'my_photo-2062.jpg'
p2606
(dp2607
I34017
g323
sI37391
g71
ssS'my_photo-1955.jpg'
p2608
(dp2609
I32672
g28
sI27967
g25
ssS'my_photo-2096.jpg'
p2610
(dp2611
I36372
g17
sI29189
g18
ssS'my_photo-1491.jpg'
p2612
(dp2613
I40574
g38
sI38119
g4
ssS'my_photo-1889.jpg'
p2614
(dp2615
I30449
g28
sI38901
g13
ssS'my_photo-1186.jpg'
p2616
(dp2617
I37298
g4
ssS'my_photo-1570.jpg'
p2618
(dp2619
I38992
g115
sI30809
g17
sI37596
g18
ssS'my_photo-2069.jpg'
p2620
(dp2621
I31524
g110
ssS'my_photo-1085.jpg'
p2622
(dp2623
I26435
g48
sI41399
g158
ssS'my_photo-907.jpg'
p2624
(dp2625
I31026
g136
sI39531
g9
sI37789
g143
sI33454
g135
sI30519
g8
ssS'my_photo-975.jpg'
p2626
(dp2627
I26660
g22
ssS'my_photo-1088.jpg'
p2628
(dp2629
I37224
g49
sI31804
g39
ssS'my_photo-1547.jpg'
p2630
(dp2631
I31576
g276
sI39154
g168
ssS'my_photo-1650.jpg'
p2632
(dp2633
I27137
g55
sI37732
g56
ssS'my_photo-1886.jpg'
p2634
(dp2635
I33841
g13
sI40571
g88
ssS'my_photo-1969.jpg'
p2636
(dp2637
I29489
g184
ssS'my_photo-965.jpg'
p2638
(dp2639
I31354
g25
sI29379
g28
ssS'my_photo-1352.jpg'
p2640
(dp2641
I37081
g168
sI35255
g169
ssS'my_photo-1455.jpg'
p2642
(dp2643
I25294
g28
ssS'my_photo-863.jpg'
p2644
(dp2645
I35444
g952
ssS'my_photo-2187.jpg'
p2646
(dp2647
I32857
g38
sI35067
g39
ssS'my_photo-1644.jpg'
p2648
(dp2649
I26217
g28
sI31597
g25
sI41959
g255
ssS'my_photo-1959.jpg'
p2650
(dp2651
I22915
g22
sI41197
g56
sI37494
g25
sI41605
g19
ssS'my_photo-1866.jpg'
p2652
(dp2653
I37388
g105
ssS'my_photo-1424.jpg'
p2654
(dp2655
I33696
g17
sI34614
g18
ssS'my_photo-1664.jpg'
p2656
(dp2657
I31376
g63
sI41341
g184
sI40870
g143
ssS'my_photo-1603.jpg'
p2658
(dp2659
I32945
g13
sI33718
g28
ssS'my_photo-2035.jpg'
p2660
(dp2661
I27746
g193
sI39442
g159
ssS'my_photo-1076.jpg'
p2662
(dp2663
I35424
g18
sI36667
g115
sI37396
g17
ssS'my_photo-1018.jpg'
p2664
(dp2665
I33698
g206
ssS'my_photo-2038.jpg'
p2666
(dp2667
I38650
g193
sI32645
g158
sI35655
g159
ssS'my_photo-1537.jpg'
p2668
(dp2669
I28156
g48
ssS'my_photo-1768.jpg'
p2670
(dp2671
I28882
g63
sI36243
g43
ssS'my_photo-1202.jpg'
p2672
(dp2673
I32730
g206
ssS'my_photo-1752.jpg'
p2674
(dp2675
I25661
g25
sI34599
g56
ssS'my_photo-855.jpg'
p2676
(dp2677
I38144
g101
sI27385
g1073
ssS'my_photo-2149.jpg'
p2678
(dp2679
I36088
g14
sI37781
g52
ssS'my_photo-1582.jpg'
p2680
(dp2681
I41575
g418
sI40671
g323
ssS'my_photo-2007.jpg'
p2682
(dp2683
I25088
g14
sI41251
g88
sI37614
g13
ssS'my_photo-2116.jpg'
p2684
(dp2685
I36463
g132
sI34227
g49
sI34535
g48
ssS'my_photo-760.jpg'
p2686
(dp2687
I43660
g360
ssS'my_photo-1828.jpg'
p2688
(dp2689
I36833
g42
sI40427
g45
sI39867
g55
ssS'my_photo-1856.jpg'
p2690
(dp2691
I40532
g38
sI32207
g39
ssS'my_photo-1542.jpg'
p2692
(dp2693
I36908
g158
sI39828
g193
sI35385
g159
ssS'my_photo-1406.jpg'
p2694
(dp2695
I33348
g13
ssS'my_photo-1334.jpg'
p2696
(dp2697
I29305
g28
sI41535
g13
ssS'my_photo-1996.jpg'
p2698
(dp2699
I31361
g70
sI41915
g71
ssS'my_photo-1621.jpg'
p2700
(dp2701
I40659
g59
sI38156
g419
ssS'my_photo-1247.jpg'
p2702
(dp2703
I34601
g4
ssS'my_photo-1152.jpg'
p2704
(dp2705
I37207
g76
ssS'my_photo-2219.jpg'
p2706
(dp2707
I23017
g13
sI40509
g14
ssS'my_photo-1960.jpg'
p2708
(dp2709
I30078
g22
sI34815
g19
ssS'my_photo-1932.jpg'
p2710
(dp2711
I30407
g323
ssS'my_photo-753.jpg'
p2712
(dp2713
I39474
g1073
sI41346
g102
sI30214
g101
ssS'my_photo-1333.jpg'
p2714
(dp2715
I32792
g28
sI37740
g13
ssS'my_photo-1045.jpg'
p2716
(dp2717
I40342
g184
sI30967
g115
ssS'my_photo-934.jpg'
p2718
(dp2719
I41793
g952
ssS'my_photo-1248.jpg'
p2720
(dp2721
I40903
g4
ssS'my_photo-1261.jpg'
p2722
(dp2723
I39185
g205
sI39278
g206
ssS'my_photo-2139.jpg'
p2724
(dp2725
I34674
g70
sI40861
g110
ssS'my_photo-803.jpg'
p2726
(dp2727
I42491
g557
sI43749
g952
ssS'my_photo-1681.jpg'
p2728
(dp2729
I39960
g9
sI31459
g38
sI34910
g39
ssS'my_photo-1151.jpg'
p2730
(dp2731
I35195
g76
sI39964
g336
ssS'my_photo-2060.jpg'
p2732
(dp2733
I37226
g323
ssS'my_photo-1023.jpg'
p2734
(dp2735
I41864
g77
sI35602
g140
ssS'my_photo-1047.jpg'
p2736
(dp2737
I30431
g184
ssS'my_photo-2134.jpg'
p2738
(dp2739
I29964
g323
ssS'my_photo-1282.jpg'
p2740
(dp2741
I35776
g19
sI29531
g22
ssS'my_photo-1082.jpg'
p2742
(dp2743
I36128
g158
sI36723
g159
sI37963
g193
ssS'my_photo-881.jpg'
p2744
(dp2745
I40674
g196
ssS'my_photo-1237.jpg'
p2746
(dp2747
I33257
g158
sI37089
g48
ssS'my_photo-974.jpg'
p2748
(dp2749
I40328
g56
sI33803
g25
sI30950
g22
ssS'my_photo-957.jpg'
p2750
(dp2751
I41936
g13
sI31180
g14
ssS'my_photo-2050.jpg'
p2752
(dp2753
I35764
g4
sI38934
g38
ssS'my_photo-1125.jpg'
p2754
(dp2755
I38712
g39
sI30048
g49
sI37543
g132
ssS'my_photo-1968.jpg'
p2756
(dp2757
I27233
g184
ssS'my_photo-1226.jpg'
p2758
(dp2759
I32160
g18
sI37181
g17
ssS'my_photo-1149.jpg'
p2760
(dp2761
I31361
g206
ssS'my_photo-1530.jpg'
p2762
(dp2763
I36729
g38
sI41523
g39
sI41708
g4
ssS'my_photo-1256.jpg'
p2764
(dp2765
I35681
g84
sI40556
g85
sI31574
g83
ssS'my_photo-2216.jpg'
p2766
(dp2767
I37616
g52
sI36166
g14
ssS'my_photo-1329.jpg'
p2768
(dp2769
I35336
g88
sI38839
g619
ssS'my_photo-1624.jpg'
p2770
(dp2771
I36274
g71
sI37628
g323
ssS'my_photo-751.jpg'
p2772
(dp2773
I33514
g235
sI38006
g102
ssS'my_photo-1703.jpg'
p2774
(dp2775
I36820
g619
sI39978
g9
sI31620
g88
ssS'my_photo-1070.jpg'
p2776
(dp2777
I37365
g105
ssS'my_photo-1952.jpg'
p2778
(dp2779
I28009
g28
sI37029
g13
ssS'my_photo-2032.jpg'
p2780
(dp2781
I28023
g184
ssS'my_photo-1255.jpg'
p2782
(dp2783
I36923
g83
sI41891
g84
ssS'my_photo-902.jpg'
p2784
(dp2785
I34480
g44
sI28121
g62
sI33491
g43
ssS'my_photo-1049.jpg'
p2786
(dp2787
I40578
g184
sI33611
g193
ssS'my_photo-1592.jpg'
p2788
(dp2789
I36448
g250
ssS'my_photo-2059.jpg'
p2790
(dp2791
I40597
g418
ssS'my_photo-1615.jpg'
p2792
(dp2793
I41816
g42
sI35577
g44
sI36457
g43
sI30663
g45
ssS'my_photo-1335.jpg'
p2794
(dp2795
I25989
g28
ssS'my_photo-1742.jpg'
p2796
(dp2797
I41632
g52
sI36690
g14
ssS'my_photo-1753.jpg'
p2798
(dp2799
I36483
g22
sI38785
g55
sI25571
g56
sI34452
g25
ssS'my_photo-2111.jpg'
p2800
(dp2801
I30242
g158
sI36980
g159
sI41470
g193
ssS'my_photo-1766.jpg'
p2802
(dp2803
I28728
g43
sI39731
g63
sI38740
g62
sI39621
g45
sI34935
g44
ssS'my_photo-1841.jpg'
p2804
(dp2805
I34742
g10
ssS'my_photo-2142.jpg'
p2806
(dp2807
I41552
g250
sI38873
g110
ssS'my_photo-944.jpg'
p2808
(dp2809
I31153
g71
ssS'my_photo-968.jpg'
p2810
(dp2811
I37160
g28
sI30542
g13
ssS'my_photo-2042.jpg'
p2812
(dp2813
I25460
g48
ssS'my_photo-786.jpg'
p2814
(dp2815
I29763
g43
sI38623
g45
sI32332
g62
sI29271
g44
ssS'my_photo-2148.jpg'
p2816
(dp2817
I38598
g52
sI35678
g129
ssS'my_photo-1549.jpg'
p2818
(dp2819
I29504
g168
ssS'my_photo-937.jpg'
p2820
(dp2821
I40236
g59
ssS'my_photo-833.jpg'
p2822
(dp2823
I39417
g144
sI36786
g43
sI38227
g44
sI26102
g62
ssS'my_photo-1165.jpg'
p2824
(dp2825
I39922
g56
sI34523
g25
sI24735
g22
ssS'my_photo-1423.jpg'
p2826
(dp2827
I33574
g18
sI35207
g17
ssS'my_photo-759.jpg'
p2828
(dp2829
I39948
g952
ssS'my_photo-1962.jpg'
p2830
(dp2831
I32236
g19
sI32573
g18
ssS'my_photo-823.jpg'
p2832
(dp2833
I28192
g25
sI32308
g28
ssS'my_photo-1387.jpg'
p2834
(dp2835
I38836
g169
sI32991
g258
ssS'my_photo-2074.jpg'
p2836
(dp2837
I40496
g196
ssS'my_photo-1876.jpg'
p2838
(dp2839
I33675
g206
ssS'my_photo-1317.jpg'
p2840
(dp2841
I38201
g168
sI41493
g92
sI35153
g292
ssS'my_photo-1153.jpg'
p2842
(dp2843
I36922
g77
sI37771
g140
ssS'my_photo-1339.jpg'
p2844
(dp2845
I41512
g56
sI35306
g25
sI30558
g22
ssS'my_photo-956.jpg'
p2846
(dp2847
I41601
g14
sI34188
g52
ssS'my_photo-1285.jpg'
p2848
(dp2849
I38528
g206
ssS'my_photo-1723.jpg'
p2850
(dp2851
I39564
g419
sI37206
g59
ssS'my_photo-829.jpg'
p2852
(dp2853
I36953
g55
sI38825
g42
ssS'my_photo-1478.jpg'
p2854
(dp2855
I40261
g84
sI42181
g91
ssS'my_photo-1651.jpg'
p2856
(dp2857
I41544
g42
sI33745
g55
ssS'my_photo-2014.jpg'
p2858
(dp2859
I28539
g25
sI32317
g28
ssS'my_photo-1092.jpg'
p2860
(dp2861
I41833
g4
ssS'my_photo-1175.jpg'
p2862
(dp2863
I34312
g184
sI32925
g115
ssS'my_photo-1075.jpg'
p2864
(dp2865
I37433
g17
sI38906
g115
sI32419
g18
ssS'my_photo-1395.jpg'
p2866
(dp2867
I37619
g31
ssS'my_photo-1794.jpg'
p2868
(dp2869
I41673
g105
ssS'my_photo-1618.jpg'
p2870
(dp2871
I35808
g62
sI34993
g44
sI29741
g43
sI35336
g63
ssS'my_photo-2181.jpg'
p2872
(dp2873
I40776
g158
sI25565
g48
ssS'my_photo-1759.jpg'
p2874
(dp2875
I41224
g45
sI37536
g42
sI39083
g55
ssS'my_photo-2206.jpg'
p2876
(dp2877
I38264
g70
sI36116
g110
ssS'my_photo-2217.jpg'
p2878
(dp2879
I41418
g88
sI37132
g13
sI24879
g14
ssS'my_photo-2172.jpg'
p2880
(dp2881
I27338
g184
ssS'my_photo-1276.jpg'
p2882
(dp2883
I33149
g25
sI26621
g28
ssS'my_photo-2162.jpg'
p2884
(dp2885
I38048
g19
sI27001
g22
ssS'my_photo-978.jpg'
p2886
(dp2887
I36891
g18
sI31838
g19
ssS'my_photo-1303.jpg'
p2888
(dp2889
I36408
g18
sI33843
g19
ssS'my_photo-1756.jpg'
p2890
(dp2891
I33291
g55
ssS'my_photo-1477.jpg'
p2892
(dp2893
I39104
g91
ssS'my_photo-1068.jpg'
p2894
(dp2895
I40016
g383
ssS'my_photo-859.jpg'
p2896
(dp2897
I39388
g173
sI28629
g172
ssS'my_photo-765.jpg'
p2898
(dp2899
I36905
g71
sI37765
g323
ssS'my_photo-1625.jpg'
p2900
(dp2901
I32104
g71
ssS'my_photo-2022.jpg'
p2902
(dp2903
I31493
g19
sI33446
g18
ssS'my_photo-1407.jpg'
p2904
(dp2905
I30948
g13
ssS'my_photo-1300.jpg'
p2906
(dp2907
I25799
g22
ssS'my_photo-2118.jpg'
p2908
(dp2909
I40584
g132
sI34489
g39
sI33239
g49
ssS'my_photo-1817.jpg'
p2910
(dp2911
I25662
g28
ssS'my_photo-1296.jpg'
p2912
(dp2913
I29280
g28
sI35916
g25
ssS'my_photo-1403.jpg'
p2914
(dp2915
I39577
g88
sI37831
g619
ssS'my_photo-981.jpg'
p2916
(dp2917
I37676
g17
sI32479
g18
ssS'my_photo-2152.jpg'
p2918
(dp2919
I23043
g13
sI40559
g14
ssS'my_photo-2143.jpg'
p2920
(dp2921
I36587
g250
ssS'my_photo-1572.jpg'
p2922
(dp2923
I31432
g17
sI38204
g18
ssS'my_photo-1895.jpg'
p2924
(dp2925
I36417
g22
sI25954
g56
sI36402
g25
sI37013
g55
ssS'my_photo-796.jpg'
p2926
(dp2927
I34121
g532
sI31022
g267
ssS'my_photo-787.jpg'
p2928
(dp2929
I29813
g62
sI35822
g144
ssS'my_photo-982.jpg'
p2930
(dp2931
I41753
g184
sI30262
g115
ssS'my_photo-1438.jpg'
p2932
(dp2933
I36168
g31
ssS'my_photo-856.jpg'
p2934
(dp2935
I40150
g173
sI36902
g1073
ssS'my_photo-1892.jpg'
p2936
(dp2937
I41048
g56
sI26366
g25
ssS'my_photo-1201.jpg'
p2938
(dp2939
I31912
g206
ssS'my_photo-1608.jpg'
p2940
(dp2941
I30792
g56
sI28880
g25
sI37754
g22
ssS'my_photo-1777.jpg'
p2942
(dp2943
I35899
g7
sI34934
g155
ssS'my_photo-926.jpg'
p2944
(dp2945
I32214
g1073
ssS'my_photo-1875.jpg'
p2946
(dp2947
I41160
g205
sI39987
g206
ssS'my_photo-1437.jpg'
p2948
(dp2949
I38426
g292
sI42613
g31
ssS'my_photo-1940.jpg'
p2950
(dp2951
I35629
g250
ssS'my_photo-1024.jpg'
p2952
(dp2953
I37378
g88
sI35980
g619
ssS'my_photo-1283.jpg'
p2954
(dp2955
I36633
g18
sI36697
g22
sI29049
g19
ssS'my_photo-1517.jpg'
p2956
(dp2957
I39409
g84
ssS'my_photo-884.jpg'
p2958
(dp2959
I33676
g52
sI41383
g129
ssS'my_photo-2043.jpg'
p2960
(dp2961
I38522
g132
sI36102
g49
sI32534
g48
ss.