(lp1
S'my_photo-1065.jpg'
p2
aS'my_photo-1067.jpg'
p3
aS'my_photo-1069.jpg'
p4
aS'my_photo-1093.jpg'
p5
aS'my_photo-1094.jpg'
p6
aS'my_photo-1133.jpg'
p7
aS'my_photo-1134.jpg'
p8
aS'my_photo-1137.jpg'
p9
aS'my_photo-1187.jpg'
p10
aS'my_photo-1249.jpg'
p11
aS'my_photo-1251.jpg'
p12
aS'my_photo-1252.jpg'
p13
aS'my_photo-1287.jpg'
p14
aS'my_photo-1321.jpg'
p15
aS'my_photo-1361.jpg'
p16
aS'my_photo-1396.jpg'
p17
aS'my_photo-1487.jpg'
p18
aS'my_photo-1488.jpg'
p19
aS'my_photo-1523.jpg'
p20
aS'my_photo-1525.jpg'
p21
aS'my_photo-1526.jpg'
p22
aS'my_photo-1595.jpg'
p23
aS'my_photo-1688.jpg'
p24
aS'my_photo-1735.jpg'
p25
aS'my_photo-1737.jpg'
p26
aS'my_photo-1739.jpg'
p27
aS'my_photo-1791.jpg'
p28
aS'my_photo-1862.jpg'
p29
aS'my_photo-1865.jpg'
p30
aS'my_photo-1941.jpg'
p31
aS'my_photo-1943.jpg'
p32
aS'my_photo-1989.jpg'
p33
aS'my_photo-2072.jpg'
p34
aS'my_photo-2125.jpg'
p35
aS'my_photo-2130.jpg'
p36
aS'my_photo-2144.jpg'
p37
aS'my_photo-2146.jpg'
p38
aS'my_photo-2196.jpg'
p39
aS'my_photo-2197.jpg'
p40
aS'my_photo-2210.jpg'
p41
aS'my_photo-2212.jpg'
p42
aS'my_photo-814.jpg'
p43
aS'my_photo-815.jpg'
p44
aS'my_photo-880.jpg'
p45
aS'my_photo-952.jpg'
p46
aS'my_photo-953.jpg'
p47
aS'my_photo-954.jpg'
p48
a.